
libwiringPi.so.2.60：     檔案格式 elf32-littlearm


Disassembly of section .init:

000024c8 <_init>:
    24c8:	e92d4008 	push	{r3, lr}
    24cc:	eb0001a9 	bl	2b78 <call_weak_fn>
    24d0:	e8bd8008 	pop	{r3, pc}

Disassembly of section .plt:

000024d4 <.plt>:
    24d4:	e52de004 	push	{lr}		; (str lr, [sp, #-4]!)
    24d8:	e59fe004 	ldr	lr, [pc, #4]	; 24e4 <.plt+0x10>
    24dc:	e08fe00e 	add	lr, pc, lr
    24e0:	e5bef008 	ldr	pc, [lr, #8]!
    24e4:	00019b1c 	.word	0x00019b1c

000024e8 <pthread_mutex_unlock@plt>:
    24e8:	e28fc600 	add	ip, pc, #0, 12
    24ec:	e28cca19 	add	ip, ip, #102400	; 0x19000
    24f0:	e5bcfb1c 	ldr	pc, [ip, #2844]!	; 0xb1c

000024f4 <calloc@plt>:
    24f4:	e28fc600 	add	ip, pc, #0, 12
    24f8:	e28cca19 	add	ip, ip, #102400	; 0x19000
    24fc:	e5bcfb14 	ldr	pc, [ip, #2836]!	; 0xb14

00002500 <strstr@plt>:
    2500:	e28fc600 	add	ip, pc, #0, 12
    2504:	e28cca19 	add	ip, ip, #102400	; 0x19000
    2508:	e5bcfb0c 	ldr	pc, [ip, #2828]!	; 0xb0c

0000250c <raise@plt>:
    250c:	e28fc600 	add	ip, pc, #0, 12
    2510:	e28cca19 	add	ip, ip, #102400	; 0x19000
    2514:	e5bcfb04 	ldr	pc, [ip, #2820]!	; 0xb04

00002518 <serialPutchar@plt>:
    2518:	e28fc600 	add	ip, pc, #0, 12
    251c:	e28cca19 	add	ip, ip, #102400	; 0x19000
    2520:	e5bcfafc 	ldr	pc, [ip, #2812]!	; 0xafc

00002524 <cfmakeraw@plt>:
    2524:	e28fc600 	add	ip, pc, #0, 12
    2528:	e28cca19 	add	ip, ip, #102400	; 0x19000
    252c:	e5bcfaf4 	ldr	pc, [ip, #2804]!	; 0xaf4

00002530 <htu21dSetup@plt>:
    2530:	e28fc600 	add	ip, pc, #0, 12
    2534:	e28cca19 	add	ip, ip, #102400	; 0x19000
    2538:	e5bcfaec 	ldr	pc, [ip, #2796]!	; 0xaec

0000253c <bmp180Setup@plt>:
    253c:	e28fc600 	add	ip, pc, #0, 12
    2540:	e28cca19 	add	ip, ip, #102400	; 0x19000
    2544:	e5bcfae4 	ldr	pc, [ip, #2788]!	; 0xae4

00002548 <strcmp@plt>:
    2548:	e28fc600 	add	ip, pc, #0, 12
    254c:	e28cca19 	add	ip, ip, #102400	; 0x19000
    2550:	e5bcfadc 	ldr	pc, [ip, #2780]!	; 0xadc

00002554 <__cxa_finalize@plt>:
    2554:	e28fc600 	add	ip, pc, #0, 12
    2558:	e28cca19 	add	ip, ip, #102400	; 0x19000
    255c:	e5bcfad4 	ldr	pc, [ip, #2772]!	; 0xad4

00002560 <strtol@plt>:
    2560:	e28fc600 	add	ip, pc, #0, 12
    2564:	e28cca19 	add	ip, ip, #102400	; 0x19000
    2568:	e5bcfacc 	ldr	pc, [ip, #2764]!	; 0xacc

0000256c <setsockopt@plt>:
    256c:	e28fc600 	add	ip, pc, #0, 12
    2570:	e28cca19 	add	ip, ip, #102400	; 0x19000
    2574:	e5bcfac4 	ldr	pc, [ip, #2756]!	; 0xac4

00002578 <serialOpen@plt>:
    2578:	e28fc600 	add	ip, pc, #0, 12
    257c:	e28cca19 	add	ip, ip, #102400	; 0x19000
    2580:	e5bcfabc 	ldr	pc, [ip, #2748]!	; 0xabc

00002584 <piHiPri@plt>:
    2584:	e28fc600 	add	ip, pc, #0, 12
    2588:	e28cca19 	add	ip, ip, #102400	; 0x19000
    258c:	e5bcfab4 	ldr	pc, [ip, #2740]!	; 0xab4

00002590 <printf@plt>:
    2590:	e28fc600 	add	ip, pc, #0, 12
    2594:	e28cca19 	add	ip, ip, #102400	; 0x19000
    2598:	e5bcfaac 	ldr	pc, [ip, #2732]!	; 0xaac

0000259c <serialClose@plt>:
    259c:	e28fc600 	add	ip, pc, #0, 12
    25a0:	e28cca19 	add	ip, ip, #102400	; 0x19000
    25a4:	e5bcfaa4 	ldr	pc, [ip, #2724]!	; 0xaa4

000025a8 <fopen@plt>:
    25a8:	e28fc600 	add	ip, pc, #0, 12
    25ac:	e28cca19 	add	ip, ip, #102400	; 0x19000
    25b0:	e5bcfa9c 	ldr	pc, [ip, #2716]!	; 0xa9c

000025b4 <read@plt>:
    25b4:	e28fc600 	add	ip, pc, #0, 12
    25b8:	e28cca19 	add	ip, ip, #102400	; 0x19000
    25bc:	e5bcfa94 	ldr	pc, [ip, #2708]!	; 0xa94

000025c0 <mcp3004Setup@plt>:
    25c0:	e28fc600 	add	ip, pc, #0, 12
    25c4:	e28cca19 	add	ip, ip, #102400	; 0x19000
    25c8:	e5bcfa8c 	ldr	pc, [ip, #2700]!	; 0xa8c

000025cc <tcflush@plt>:
    25cc:	e28fc600 	add	ip, pc, #0, 12
    25d0:	e28cca19 	add	ip, ip, #102400	; 0x19000
    25d4:	e5bcfa84 	ldr	pc, [ip, #2692]!	; 0xa84

000025d8 <pcf8591Setup@plt>:
    25d8:	e28fc600 	add	ip, pc, #0, 12
    25dc:	e28cca19 	add	ip, ip, #102400	; 0x19000
    25e0:	e5bcfa7c 	ldr	pc, [ip, #2684]!	; 0xa7c

000025e4 <digitalRead@plt>:
    25e4:	e28fc600 	add	ip, pc, #0, 12
    25e8:	e28cca19 	add	ip, ip, #102400	; 0x19000
    25ec:	e5bcfa74 	ldr	pc, [ip, #2676]!	; 0xa74

000025f0 <free@plt>:
    25f0:	e28fc600 	add	ip, pc, #0, 12
    25f4:	e28cca19 	add	ip, ip, #102400	; 0x19000
    25f8:	e5bcfa6c 	ldr	pc, [ip, #2668]!	; 0xa6c

000025fc <mcp23017Setup@plt>:
    25fc:	e28fc600 	add	ip, pc, #0, 12
    2600:	e28cca19 	add	ip, ip, #102400	; 0x19000
    2604:	e5bcfa64 	ldr	pc, [ip, #2660]!	; 0xa64

00002608 <pwmSetMode@plt>:
    2608:	e28fc600 	add	ip, pc, #0, 12
    260c:	e28cca19 	add	ip, ip, #102400	; 0x19000
    2610:	e5bcfa5c 	ldr	pc, [ip, #2652]!	; 0xa5c

00002614 <fgets@plt>:
    2614:	e28fc600 	add	ip, pc, #0, 12
    2618:	e28cca19 	add	ip, ip, #102400	; 0x19000
    261c:	e5bcfa54 	ldr	pc, [ip, #2644]!	; 0xa54

00002620 <pthread_mutex_lock@plt>:
    2620:	e28fc600 	add	ip, pc, #0, 12
    2624:	e28cca19 	add	ip, ip, #102400	; 0x19000
    2628:	e5bcfa4c 	ldr	pc, [ip, #2636]!	; 0xa4c

0000262c <nanosleep@plt>:
    262c:	e28fc600 	add	ip, pc, #0, 12
    2630:	e28cca19 	add	ip, ip, #102400	; 0x19000
    2634:	e5bcfa44 	ldr	pc, [ip, #2628]!	; 0xa44

00002638 <ds18b20Setup@plt>:
    2638:	e28fc600 	add	ip, pc, #0, 12
    263c:	e28cca19 	add	ip, ip, #102400	; 0x19000
    2640:	e5bcfa3c 	ldr	pc, [ip, #2620]!	; 0xa3c

00002644 <mcp3422Setup@plt>:
    2644:	e28fc600 	add	ip, pc, #0, 12
    2648:	e28cca19 	add	ip, ip, #102400	; 0x19000
    264c:	e5bcfa34 	ldr	pc, [ip, #2612]!	; 0xa34

00002650 <inet_pton@plt>:
    2650:	e28fc600 	add	ip, pc, #0, 12
    2654:	e28cca19 	add	ip, ip, #102400	; 0x19000
    2658:	e5bcfa2c 	ldr	pc, [ip, #2604]!	; 0xa2c

0000265c <wiringPiI2CReadReg16@plt>:
    265c:	e28fc600 	add	ip, pc, #0, 12
    2660:	e28cca19 	add	ip, ip, #102400	; 0x19000
    2664:	e5bcfa24 	ldr	pc, [ip, #2596]!	; 0xa24

00002668 <pthread_self@plt>:
    2668:	e28fc600 	add	ip, pc, #0, 12
    266c:	e28cca19 	add	ip, ip, #102400	; 0x19000
    2670:	e5bcfa1c 	ldr	pc, [ip, #2588]!	; 0xa1c

00002674 <shm_open@plt>:
    2674:	e28fc600 	add	ip, pc, #0, 12
    2678:	e28cca19 	add	ip, ip, #102400	; 0x19000
    267c:	e5bcfa14 	ldr	pc, [ip, #2580]!	; 0xa14

00002680 <time@plt>:
    2680:	e28fc600 	add	ip, pc, #0, 12
    2684:	e28cca19 	add	ip, ip, #102400	; 0x19000
    2688:	e5bcfa0c 	ldr	pc, [ip, #2572]!	; 0xa0c

0000268c <digitalWrite@plt>:
    268c:	e28fc600 	add	ip, pc, #0, 12
    2690:	e28cca19 	add	ip, ip, #102400	; 0x19000
    2694:	e5bcfa04 	ldr	pc, [ip, #2564]!	; 0xa04

00002698 <lseek@plt>:
    2698:	e28fc600 	add	ip, pc, #0, 12
    269c:	e28cca19 	add	ip, ip, #102400	; 0x19000
    26a0:	e5bcf9fc 	ldr	pc, [ip, #2556]!	; 0x9fc

000026a4 <pow@plt>:
    26a4:	e28fc600 	add	ip, pc, #0, 12
    26a8:	e28cca19 	add	ip, ip, #102400	; 0x19000
    26ac:	e5bcf9f4 	ldr	pc, [ip, #2548]!	; 0x9f4

000026b0 <pseudoPinsSetup@plt>:
    26b0:	e28fc600 	add	ip, pc, #0, 12
    26b4:	e28cca19 	add	ip, ip, #102400	; 0x19000
    26b8:	e5bcf9ec 	ldr	pc, [ip, #2540]!	; 0x9ec

000026bc <pwmWrite@plt>:
    26bc:	e28fc600 	add	ip, pc, #0, 12
    26c0:	e28cca19 	add	ip, ip, #102400	; 0x19000
    26c4:	e5bcf9e4 	ldr	pc, [ip, #2532]!	; 0x9e4

000026c8 <wiringPiI2CSetup@plt>:
    26c8:	e28fc600 	add	ip, pc, #0, 12
    26cc:	e28cca19 	add	ip, ip, #102400	; 0x19000
    26d0:	e5bcf9dc 	ldr	pc, [ip, #2524]!	; 0x9dc

000026d4 <wiringPiI2CRead@plt>:
    26d4:	e28fc600 	add	ip, pc, #0, 12
    26d8:	e28cca19 	add	ip, ip, #102400	; 0x19000
    26dc:	e5bcf9d4 	ldr	pc, [ip, #2516]!	; 0x9d4

000026e0 <rewind@plt>:
    26e0:	e28fc600 	add	ip, pc, #0, 12
    26e4:	e28cca19 	add	ip, ip, #102400	; 0x19000
    26e8:	e5bcf9cc 	ldr	pc, [ip, #2508]!	; 0x9cc

000026ec <sn3218Setup@plt>:
    26ec:	e28fc600 	add	ip, pc, #0, 12
    26f0:	e28cca19 	add	ip, ip, #102400	; 0x19000
    26f4:	e5bcf9c4 	ldr	pc, [ip, #2500]!	; 0x9c4

000026f8 <pwmSetClock@plt>:
    26f8:	e28fc600 	add	ip, pc, #0, 12
    26fc:	e28cca19 	add	ip, ip, #102400	; 0x19000
    2700:	e5bcf9bc 	ldr	pc, [ip, #2492]!	; 0x9bc

00002704 <softPwmStop@plt>:
    2704:	e28fc600 	add	ip, pc, #0, 12
    2708:	e28cca19 	add	ip, ip, #102400	; 0x19000
    270c:	e5bcf9b4 	ldr	pc, [ip, #2484]!	; 0x9b4

00002710 <wiringPiI2CWrite@plt>:
    2710:	e28fc600 	add	ip, pc, #0, 12
    2714:	e28cca19 	add	ip, ip, #102400	; 0x19000
    2718:	e5bcf9ac 	ldr	pc, [ip, #2476]!	; 0x9ac

0000271c <read16@plt>:
    271c:	e28fc600 	add	ip, pc, #0, 12
    2720:	e28cca19 	add	ip, ip, #102400	; 0x19000
    2724:	e5bcf9a4 	ldr	pc, [ip, #2468]!	; 0x9a4

00002728 <max5322Setup@plt>:
    2728:	e28fc600 	add	ip, pc, #0, 12
    272c:	e28cca19 	add	ip, ip, #102400	; 0x19000
    2730:	e5bcf99c 	ldr	pc, [ip, #2460]!	; 0x99c

00002734 <wait@plt>:
    2734:	e28fc600 	add	ip, pc, #0, 12
    2738:	e28cca19 	add	ip, ip, #102400	; 0x19000
    273c:	e5bcf994 	ldr	pc, [ip, #2452]!	; 0x994

00002740 <serialGetchar@plt>:
    2740:	e28fc600 	add	ip, pc, #0, 12
    2744:	e28cca19 	add	ip, ip, #102400	; 0x19000
    2748:	e5bcf98c 	ldr	pc, [ip, #2444]!	; 0x98c

0000274c <checksum@plt>:
    274c:	e28fc600 	add	ip, pc, #0, 12
    2750:	e28cca19 	add	ip, ip, #102400	; 0x19000
    2754:	e5bcf984 	ldr	pc, [ip, #2436]!	; 0x984

00002758 <mcp23016Setup@plt>:
    2758:	e28fc600 	add	ip, pc, #0, 12
    275c:	e28cca19 	add	ip, ip, #102400	; 0x19000
    2760:	e5bcf97c 	ldr	pc, [ip, #2428]!	; 0x97c

00002764 <waitForConversion@plt>:
    2764:	e28fc600 	add	ip, pc, #0, 12
    2768:	e28cca19 	add	ip, ip, #102400	; 0x19000
    276c:	e5bcf974 	ldr	pc, [ip, #2420]!	; 0x974

00002770 <poll@plt>:
    2770:	e28fc600 	add	ip, pc, #0, 12
    2774:	e28cca19 	add	ip, ip, #102400	; 0x19000
    2778:	e5bcf96c 	ldr	pc, [ip, #2412]!	; 0x96c

0000277c <cfsetospeed@plt>:
    277c:	e28fc600 	add	ip, pc, #0, 12
    2780:	e28cca19 	add	ip, ip, #102400	; 0x19000
    2784:	e5bcf964 	ldr	pc, [ip, #2404]!	; 0x964

00002788 <delayMicroseconds@plt>:
    2788:	e28fc600 	add	ip, pc, #0, 12
    278c:	e28cca19 	add	ip, ip, #102400	; 0x19000
    2790:	e5bcf95c 	ldr	pc, [ip, #2396]!	; 0x95c

00002794 <fwrite@plt>:
    2794:	e28fc600 	add	ip, pc, #0, 12
    2798:	e28cca19 	add	ip, ip, #102400	; 0x19000
    279c:	e5bcf954 	ldr	pc, [ip, #2388]!	; 0x954

000027a0 <ioctl@plt>:
    27a0:	e28fc600 	add	ip, pc, #0, 12
    27a4:	e28cca19 	add	ip, ip, #102400	; 0x19000
    27a8:	e5bcf94c 	ldr	pc, [ip, #2380]!	; 0x94c

000027ac <wiringPiFindNode@plt>:
    27ac:	e28fc600 	add	ip, pc, #0, 12
    27b0:	e28cca19 	add	ip, ip, #102400	; 0x19000
    27b4:	e5bcf944 	ldr	pc, [ip, #2372]!	; 0x944

000027b8 <usleep@plt>:
    27b8:	e28fc600 	add	ip, pc, #0, 12
    27bc:	e28cca19 	add	ip, ip, #102400	; 0x19000
    27c0:	e5bcf93c 	ldr	pc, [ip, #2364]!	; 0x93c

000027c4 <tcsetattr@plt>:
    27c4:	e28fc600 	add	ip, pc, #0, 12
    27c8:	e28cca19 	add	ip, ip, #102400	; 0x19000
    27cc:	e5bcf934 	ldr	pc, [ip, #2356]!	; 0x934

000027d0 <gettimeofday@plt>:
    27d0:	e28fc600 	add	ip, pc, #0, 12
    27d4:	e28cca19 	add	ip, ip, #102400	; 0x19000
    27d8:	e5bcf92c 	ldr	pc, [ip, #2348]!	; 0x92c

000027dc <piGpioLayout@plt>:
    27dc:	e28fc600 	add	ip, pc, #0, 12
    27e0:	e28cca19 	add	ip, ip, #102400	; 0x19000
    27e4:	e5bcf924 	ldr	pc, [ip, #2340]!	; 0x924

000027e8 <pthread_create@plt>:
    27e8:	e28fc600 	add	ip, pc, #0, 12
    27ec:	e28cca19 	add	ip, ip, #102400	; 0x19000
    27f0:	e5bcf91c 	ldr	pc, [ip, #2332]!	; 0x91c

000027f4 <delay@plt>:
    27f4:	e28fc600 	add	ip, pc, #0, 12
    27f8:	e28cca19 	add	ip, ip, #102400	; 0x19000
    27fc:	e5bcf914 	ldr	pc, [ip, #2324]!	; 0x914

00002800 <waitForInterrupt@plt>:
    2800:	e28fc600 	add	ip, pc, #0, 12
    2804:	e28cca19 	add	ip, ip, #102400	; 0x19000
    2808:	e5bcf90c 	ldr	pc, [ip, #2316]!	; 0x90c

0000280c <sched_get_priority_max@plt>:
    280c:	e28fc600 	add	ip, pc, #0, 12
    2810:	e28cca19 	add	ip, ip, #102400	; 0x19000
    2814:	e5bcf904 	ldr	pc, [ip, #2308]!	; 0x904

00002818 <getenv@plt>:
    2818:	e28fc600 	add	ip, pc, #0, 12
    281c:	e28cca19 	add	ip, ip, #102400	; 0x19000
    2820:	e5bcf8fc 	ldr	pc, [ip, #2300]!	; 0x8fc

00002824 <puts@plt>:
    2824:	e28fc600 	add	ip, pc, #0, 12
    2828:	e28cca19 	add	ip, ip, #102400	; 0x19000
    282c:	e5bcf8f4 	ldr	pc, [ip, #2292]!	; 0x8f4

00002830 <malloc@plt>:
    2830:	e28fc600 	add	ip, pc, #0, 12
    2834:	e28cca19 	add	ip, ip, #102400	; 0x19000
    2838:	e5bcf8ec 	ldr	pc, [ip, #2284]!	; 0x8ec

0000283c <strerror@plt>:
    283c:	e28fc600 	add	ip, pc, #0, 12
    2840:	e28cca19 	add	ip, ip, #102400	; 0x19000
    2844:	e5bcf8e4 	ldr	pc, [ip, #2276]!	; 0x8e4

00002848 <wiringPiFailure@plt>:
    2848:	e28fc600 	add	ip, pc, #0, 12
    284c:	e28cca19 	add	ip, ip, #102400	; 0x19000
    2850:	e5bcf8dc 	ldr	pc, [ip, #2268]!	; 0x8dc

00002854 <__gmon_start__@plt>:
    2854:	e28fc600 	add	ip, pc, #0, 12
    2858:	e28cca19 	add	ip, ip, #102400	; 0x19000
    285c:	e5bcf8d4 	ldr	pc, [ip, #2260]!	; 0x8d4

00002860 <open@plt>:
    2860:	e28fc600 	add	ip, pc, #0, 12
    2864:	e28cca19 	add	ip, ip, #102400	; 0x19000
    2868:	e5bcf8cc 	ldr	pc, [ip, #2252]!	; 0x8cc

0000286c <__ctype_b_loc@plt>:
    286c:	e28fc600 	add	ip, pc, #0, 12
    2870:	e28cca19 	add	ip, ip, #102400	; 0x19000
    2874:	e5bcf8c4 	ldr	pc, [ip, #2244]!	; 0x8c4

00002878 <exit@plt>:
    2878:	e28fc600 	add	ip, pc, #0, 12
    287c:	e28cca19 	add	ip, ip, #102400	; 0x19000
    2880:	e5bcf8bc 	ldr	pc, [ip, #2236]!	; 0x8bc

00002884 <mcp3002Setup@plt>:
    2884:	e28fc600 	add	ip, pc, #0, 12
    2888:	e28cca19 	add	ip, ip, #102400	; 0x19000
    288c:	e5bcf8b4 	ldr	pc, [ip, #2228]!	; 0x8b4

00002890 <wiringPiI2CSetupInterface@plt>:
    2890:	e28fc600 	add	ip, pc, #0, 12
    2894:	e28cca19 	add	ip, ip, #102400	; 0x19000
    2898:	e5bcf8ac 	ldr	pc, [ip, #2220]!	; 0x8ac

0000289c <strlen@plt>:
    289c:	e28fc600 	add	ip, pc, #0, 12
    28a0:	e28cca19 	add	ip, ip, #102400	; 0x19000
    28a4:	e5bcf8a4 	ldr	pc, [ip, #2212]!	; 0x8a4

000028a8 <mmap@plt>:
    28a8:	e28fc600 	add	ip, pc, #0, 12
    28ac:	e28cca19 	add	ip, ip, #102400	; 0x19000
    28b0:	e5bcf89c 	ldr	pc, [ip, #2204]!	; 0x89c

000028b4 <fprintf@plt>:
    28b4:	e28fc600 	add	ip, pc, #0, 12
    28b8:	e28cca19 	add	ip, ip, #102400	; 0x19000
    28bc:	e5bcf894 	ldr	pc, [ip, #2196]!	; 0x894

000028c0 <cfsetispeed@plt>:
    28c0:	e28fc600 	add	ip, pc, #0, 12
    28c4:	e28cca19 	add	ip, ip, #102400	; 0x19000
    28c8:	e5bcf88c 	ldr	pc, [ip, #2188]!	; 0x88c

000028cc <wiringPiI2CReadReg8@plt>:
    28cc:	e28fc600 	add	ip, pc, #0, 12
    28d0:	e28cca19 	add	ip, ip, #102400	; 0x19000
    28d4:	e5bcf884 	ldr	pc, [ip, #2180]!	; 0x884

000028d8 <piBoardId@plt>:
    28d8:	e28fc600 	add	ip, pc, #0, 12
    28dc:	e28cca19 	add	ip, ip, #102400	; 0x19000
    28e0:	e5bcf87c 	ldr	pc, [ip, #2172]!	; 0x87c

000028e4 <wiringPiSPIDataRW@plt>:
    28e4:	e28fc600 	add	ip, pc, #0, 12
    28e8:	e28cca19 	add	ip, ip, #102400	; 0x19000
    28ec:	e5bcf874 	ldr	pc, [ip, #2164]!	; 0x874

000028f0 <__errno_location@plt>:
    28f0:	e28fc600 	add	ip, pc, #0, 12
    28f4:	e28cca19 	add	ip, ip, #102400	; 0x19000
    28f8:	e5bcf86c 	ldr	pc, [ip, #2156]!	; 0x86c

000028fc <snprintf@plt>:
    28fc:	e28fc600 	add	ip, pc, #0, 12
    2900:	e28cca19 	add	ip, ip, #102400	; 0x19000
    2904:	e5bcf864 	ldr	pc, [ip, #2148]!	; 0x864

00002908 <fcntl@plt>:
    2908:	e28fc600 	add	ip, pc, #0, 12
    290c:	e28cca19 	add	ip, ip, #102400	; 0x19000
    2910:	e5bcf85c 	ldr	pc, [ip, #2140]!	; 0x85c

00002914 <mcp23s08Setup@plt>:
    2914:	e28fc600 	add	ip, pc, #0, 12
    2918:	e28cca19 	add	ip, ip, #102400	; 0x19000
    291c:	e5bcf854 	ldr	pc, [ip, #2132]!	; 0x854

00002920 <pthread_cancel@plt>:
    2920:	e28fc600 	add	ip, pc, #0, 12
    2924:	e28cca19 	add	ip, ip, #102400	; 0x19000
    2928:	e5bcf84c 	ldr	pc, [ip, #2124]!	; 0x84c

0000292c <softToneStop@plt>:
    292c:	e28fc600 	add	ip, pc, #0, 12
    2930:	e28cca19 	add	ip, ip, #102400	; 0x19000
    2934:	e5bcf844 	ldr	pc, [ip, #2116]!	; 0x844

00002938 <write@plt>:
    2938:	e28fc600 	add	ip, pc, #0, 12
    293c:	e28cca19 	add	ip, ip, #102400	; 0x19000
    2940:	e5bcf83c 	ldr	pc, [ip, #2108]!	; 0x83c

00002944 <rint@plt>:
    2944:	e28fc600 	add	ip, pc, #0, 12
    2948:	e28cca19 	add	ip, ip, #102400	; 0x19000
    294c:	e5bcf834 	ldr	pc, [ip, #2100]!	; 0x834

00002950 <serialDataAvail@plt>:
    2950:	e28fc600 	add	ip, pc, #0, 12
    2954:	e28cca19 	add	ip, ip, #102400	; 0x19000
    2958:	e5bcf82c 	ldr	pc, [ip, #2092]!	; 0x82c

0000295c <pcf8574Setup@plt>:
    295c:	e28fc600 	add	ip, pc, #0, 12
    2960:	e28cca19 	add	ip, ip, #102400	; 0x19000
    2964:	e5bcf824 	ldr	pc, [ip, #2084]!	; 0x824

00002968 <pinMode@plt>:
    2968:	e28fc600 	add	ip, pc, #0, 12
    296c:	e28cca19 	add	ip, ip, #102400	; 0x19000
    2970:	e5bcf81c 	ldr	pc, [ip, #2076]!	; 0x81c

00002974 <softToneCreate@plt>:
    2974:	e28fc600 	add	ip, pc, #0, 12
    2978:	e28cca19 	add	ip, ip, #102400	; 0x19000
    297c:	e5bcf814 	ldr	pc, [ip, #2068]!	; 0x814

00002980 <drcSetupSerial@plt>:
    2980:	e28fc600 	add	ip, pc, #0, 12
    2984:	e28cca19 	add	ip, ip, #102400	; 0x19000
    2988:	e5bcf80c 	ldr	pc, [ip, #2060]!	; 0x80c

0000298c <wiringPiSPISetup@plt>:
    298c:	e28fc600 	add	ip, pc, #0, 12
    2990:	e28cca19 	add	ip, ip, #102400	; 0x19000
    2994:	e5bcf804 	ldr	pc, [ip, #2052]!	; 0x804

00002998 <access@plt>:
    2998:	e28fc600 	add	ip, pc, #0, 12
    299c:	e28cca19 	add	ip, ip, #102400	; 0x19000
    29a0:	e5bcf7fc 	ldr	pc, [ip, #2044]!	; 0x7fc

000029a4 <wiringPiSetup@plt>:
    29a4:	e28fc600 	add	ip, pc, #0, 12
    29a8:	e28cca19 	add	ip, ip, #102400	; 0x19000
    29ac:	e5bcf7f4 	ldr	pc, [ip, #2036]!	; 0x7f4

000029b0 <ftruncate@plt>:
    29b0:	e28fc600 	add	ip, pc, #0, 12
    29b4:	e28cca19 	add	ip, ip, #102400	; 0x19000
    29b8:	e5bcf7ec 	ldr	pc, [ip, #2028]!	; 0x7ec

000029bc <fclose@plt>:
    29bc:	e28fc600 	add	ip, pc, #0, 12
    29c0:	e28cca19 	add	ip, ip, #102400	; 0x19000
    29c4:	e5bcf7e4 	ldr	pc, [ip, #2020]!	; 0x7e4

000029c8 <max31855Setup@plt>:
    29c8:	e28fc600 	add	ip, pc, #0, 12
    29cc:	e28cca19 	add	ip, ip, #102400	; 0x19000
    29d0:	e5bcf7dc 	ldr	pc, [ip, #2012]!	; 0x7dc

000029d4 <serialPuts@plt>:
    29d4:	e28fc600 	add	ip, pc, #0, 12
    29d8:	e28cca19 	add	ip, ip, #102400	; 0x19000
    29dc:	e5bcf7d4 	ldr	pc, [ip, #2004]!	; 0x7d4

000029e0 <_drcSetupNet@plt>:
    29e0:	e28fc600 	add	ip, pc, #0, 12
    29e4:	e28cca19 	add	ip, ip, #102400	; 0x19000
    29e8:	e5bcf7cc 	ldr	pc, [ip, #1996]!	; 0x7cc

000029ec <fork@plt>:
    29ec:	e28fc600 	add	ip, pc, #0, 12
    29f0:	e28cca19 	add	ip, ip, #102400	; 0x19000
    29f4:	e5bcf7c4 	ldr	pc, [ip, #1988]!	; 0x7c4

000029f8 <execl@plt>:
    29f8:	e28fc600 	add	ip, pc, #0, 12
    29fc:	e28cca19 	add	ip, ip, #102400	; 0x19000
    2a00:	e5bcf7bc 	ldr	pc, [ip, #1980]!	; 0x7bc

00002a04 <wiringPiSPISetupMode@plt>:
    2a04:	e28fc600 	add	ip, pc, #0, 12
    2a08:	e28cca19 	add	ip, ip, #102400	; 0x19000
    2a0c:	e5bcf7b4 	ldr	pc, [ip, #1972]!	; 0x7b4

00002a10 <crypt@plt>:
    2a10:	e28fc600 	add	ip, pc, #0, 12
    2a14:	e28cca19 	add	ip, ip, #102400	; 0x19000
    2a18:	e5bcf7ac 	ldr	pc, [ip, #1964]!	; 0x7ac

00002a1c <pthread_join@plt>:
    2a1c:	e28fc600 	add	ip, pc, #0, 12
    2a20:	e28cca19 	add	ip, ip, #102400	; 0x19000
    2a24:	e5bcf7a4 	ldr	pc, [ip, #1956]!	; 0x7a4

00002a28 <gpioClockSet@plt>:
    2a28:	e28fc600 	add	ip, pc, #0, 12
    2a2c:	e28cca19 	add	ip, ip, #102400	; 0x19000
    2a30:	e5bcf79c 	ldr	pc, [ip, #1948]!	; 0x79c

00002a34 <wiringPiI2CWriteReg16@plt>:
    2a34:	e28fc600 	add	ip, pc, #0, 12
    2a38:	e28cca19 	add	ip, ip, #102400	; 0x19000
    2a3c:	e5bcf794 	ldr	pc, [ip, #1940]!	; 0x794

00002a40 <pwmSetRange@plt>:
    2a40:	e28fc600 	add	ip, pc, #0, 12
    2a44:	e28cca19 	add	ip, ip, #102400	; 0x19000
    2a48:	e5bcf78c 	ldr	pc, [ip, #1932]!	; 0x78c

00002a4c <sprintf@plt>:
    2a4c:	e28fc600 	add	ip, pc, #0, 12
    2a50:	e28cca19 	add	ip, ip, #102400	; 0x19000
    2a54:	e5bcf784 	ldr	pc, [ip, #1924]!	; 0x784

00002a58 <softPwmCreate@plt>:
    2a58:	e28fc600 	add	ip, pc, #0, 12
    2a5c:	e28cca19 	add	ip, ip, #102400	; 0x19000
    2a60:	e5bcf77c 	ldr	pc, [ip, #1916]!	; 0x77c

00002a64 <vsnprintf@plt>:
    2a64:	e28fc600 	add	ip, pc, #0, 12
    2a68:	e28cca19 	add	ip, ip, #102400	; 0x19000
    2a6c:	e5bcf774 	ldr	pc, [ip, #1908]!	; 0x774

00002a70 <delayMicrosecondsHard@plt>:
    2a70:	e28fc600 	add	ip, pc, #0, 12
    2a74:	e28cca19 	add	ip, ip, #102400	; 0x19000
    2a78:	e5bcf76c 	ldr	pc, [ip, #1900]!	; 0x76c

00002a7c <mcp23008Setup@plt>:
    2a7c:	e28fc600 	add	ip, pc, #0, 12
    2a80:	e28cca19 	add	ip, ip, #102400	; 0x19000
    2a84:	e5bcf764 	ldr	pc, [ip, #1892]!	; 0x764

00002a88 <getaddrinfo@plt>:
    2a88:	e28fc600 	add	ip, pc, #0, 12
    2a8c:	e28cca19 	add	ip, ip, #102400	; 0x19000
    2a90:	e5bcf75c 	ldr	pc, [ip, #1884]!	; 0x75c

00002a94 <wiringPiNewNode@plt>:
    2a94:	e28fc600 	add	ip, pc, #0, 12
    2a98:	e28cca19 	add	ip, ip, #102400	; 0x19000
    2a9c:	e5bcf754 	ldr	pc, [ip, #1876]!	; 0x754

00002aa0 <pthread_setschedparam@plt>:
    2aa0:	e28fc600 	add	ip, pc, #0, 12
    2aa4:	e28cca19 	add	ip, ip, #102400	; 0x19000
    2aa8:	e5bcf74c 	ldr	pc, [ip, #1868]!	; 0x74c

00002aac <socket@plt>:
    2aac:	e28fc600 	add	ip, pc, #0, 12
    2ab0:	e28cca19 	add	ip, ip, #102400	; 0x19000
    2ab4:	e5bcf744 	ldr	pc, [ip, #1860]!	; 0x744

00002ab8 <clock_gettime@plt>:
    2ab8:	e28fc600 	add	ip, pc, #0, 12
    2abc:	e28cca19 	add	ip, ip, #102400	; 0x19000
    2ac0:	e5bcf73c 	ldr	pc, [ip, #1852]!	; 0x73c

00002ac4 <ads1115Setup@plt>:
    2ac4:	e28fc600 	add	ip, pc, #0, 12
    2ac8:	e28cca19 	add	ip, ip, #102400	; 0x19000
    2acc:	e5bcf734 	ldr	pc, [ip, #1844]!	; 0x734

00002ad0 <rht03Setup@plt>:
    2ad0:	e28fc600 	add	ip, pc, #0, 12
    2ad4:	e28cca19 	add	ip, ip, #102400	; 0x19000
    2ad8:	e5bcf72c 	ldr	pc, [ip, #1836]!	; 0x72c

00002adc <drcSetupNet@plt>:
    2adc:	e28fc600 	add	ip, pc, #0, 12
    2ae0:	e28cca19 	add	ip, ip, #102400	; 0x19000
    2ae4:	e5bcf724 	ldr	pc, [ip, #1828]!	; 0x724

00002ae8 <mcp4802Setup@plt>:
    2ae8:	e28fc600 	add	ip, pc, #0, 12
    2aec:	e28cca19 	add	ip, ip, #102400	; 0x19000
    2af0:	e5bcf71c 	ldr	pc, [ip, #1820]!	; 0x71c

00002af4 <sr595Setup@plt>:
    2af4:	e28fc600 	add	ip, pc, #0, 12
    2af8:	e28cca19 	add	ip, ip, #102400	; 0x19000
    2afc:	e5bcf714 	ldr	pc, [ip, #1812]!	; 0x714

00002b00 <fputs@plt>:
    2b00:	e28fc600 	add	ip, pc, #0, 12
    2b04:	e28cca19 	add	ip, ip, #102400	; 0x19000
    2b08:	e5bcf70c 	ldr	pc, [ip, #1804]!	; 0x70c

00002b0c <strncmp@plt>:
    2b0c:	e28fc600 	add	ip, pc, #0, 12
    2b10:	e28cca19 	add	ip, ip, #102400	; 0x19000
    2b14:	e5bcf704 	ldr	pc, [ip, #1796]!	; 0x704

00002b18 <recv@plt>:
    2b18:	e28fc600 	add	ip, pc, #0, 12
    2b1c:	e28cca19 	add	ip, ip, #102400	; 0x19000
    2b20:	e5bcf6fc 	ldr	pc, [ip, #1788]!	; 0x6fc

00002b24 <close@plt>:
    2b24:	e28fc600 	add	ip, pc, #0, 12
    2b28:	e28cca19 	add	ip, ip, #102400	; 0x19000
    2b2c:	e5bcf6f4 	ldr	pc, [ip, #1780]!	; 0x6f4

00002b30 <send@plt>:
    2b30:	e28fc600 	add	ip, pc, #0, 12
    2b34:	e28cca19 	add	ip, ip, #102400	; 0x19000
    2b38:	e5bcf6ec 	ldr	pc, [ip, #1772]!	; 0x6ec

00002b3c <mcp23s17Setup@plt>:
    2b3c:	e28fc600 	add	ip, pc, #0, 12
    2b40:	e28cca19 	add	ip, ip, #102400	; 0x19000
    2b44:	e5bcf6e4 	ldr	pc, [ip, #1764]!	; 0x6e4

00002b48 <connect@plt>:
    2b48:	e28fc600 	add	ip, pc, #0, 12
    2b4c:	e28cca19 	add	ip, ip, #102400	; 0x19000
    2b50:	e5bcf6dc 	ldr	pc, [ip, #1756]!	; 0x6dc

00002b54 <wiringPiI2CWriteReg8@plt>:
    2b54:	e28fc600 	add	ip, pc, #0, 12
    2b58:	e28cca19 	add	ip, ip, #102400	; 0x19000
    2b5c:	e5bcf6d4 	ldr	pc, [ip, #1748]!	; 0x6d4

00002b60 <sched_setscheduler@plt>:
    2b60:	e28fc600 	add	ip, pc, #0, 12
    2b64:	e28cca19 	add	ip, ip, #102400	; 0x19000
    2b68:	e5bcf6cc 	ldr	pc, [ip, #1740]!	; 0x6cc

00002b6c <tcgetattr@plt>:
    2b6c:	e28fc600 	add	ip, pc, #0, 12
    2b70:	e28cca19 	add	ip, ip, #102400	; 0x19000
    2b74:	e5bcf6c4 	ldr	pc, [ip, #1732]!	; 0x6c4

Disassembly of section .text:

00002b78 <call_weak_fn>:
    2b78:	e59f3014 	ldr	r3, [pc, #20]	; 2b94 <call_weak_fn+0x1c>
    2b7c:	e59f2014 	ldr	r2, [pc, #20]	; 2b98 <call_weak_fn+0x20>
    2b80:	e08f3003 	add	r3, pc, r3
    2b84:	e7932002 	ldr	r2, [r3, r2]
    2b88:	e3520000 	cmp	r2, #0
    2b8c:	012fff1e 	bxeq	lr
    2b90:	eaffff2f 	b	2854 <__gmon_start__@plt>
    2b94:	00019478 	.word	0x00019478
    2b98:	00000260 	.word	0x00000260

00002b9c <deregister_tm_clones>:
    2b9c:	e59f002c 	ldr	r0, [pc, #44]	; 2bd0 <deregister_tm_clones+0x34>
    2ba0:	e59f302c 	ldr	r3, [pc, #44]	; 2bd4 <deregister_tm_clones+0x38>
    2ba4:	e08f0000 	add	r0, pc, r0
    2ba8:	e08f3003 	add	r3, pc, r3
    2bac:	e1530000 	cmp	r3, r0
    2bb0:	e59f3020 	ldr	r3, [pc, #32]	; 2bd8 <deregister_tm_clones+0x3c>
    2bb4:	e08f3003 	add	r3, pc, r3
    2bb8:	012fff1e 	bxeq	lr
    2bbc:	e59f2018 	ldr	r2, [pc, #24]	; 2bdc <deregister_tm_clones+0x40>
    2bc0:	e7933002 	ldr	r3, [r3, r2]
    2bc4:	e3530000 	cmp	r3, #0
    2bc8:	012fff1e 	bxeq	lr
    2bcc:	e12fff13 	bx	r3
    2bd0:	00019d78 	.word	0x00019d78
    2bd4:	00019d74 	.word	0x00019d74
    2bd8:	00019444 	.word	0x00019444
    2bdc:	00000244 	.word	0x00000244

00002be0 <register_tm_clones>:
    2be0:	e59f0038 	ldr	r0, [pc, #56]	; 2c20 <register_tm_clones+0x40>
    2be4:	e59f3038 	ldr	r3, [pc, #56]	; 2c24 <register_tm_clones+0x44>
    2be8:	e08f0000 	add	r0, pc, r0
    2bec:	e08f3003 	add	r3, pc, r3
    2bf0:	e0431000 	sub	r1, r3, r0
    2bf4:	e59f302c 	ldr	r3, [pc, #44]	; 2c28 <register_tm_clones+0x48>
    2bf8:	e1a01141 	asr	r1, r1, #2
    2bfc:	e08f3003 	add	r3, pc, r3
    2c00:	e0811fa1 	add	r1, r1, r1, lsr #31
    2c04:	e1b010c1 	asrs	r1, r1, #1
    2c08:	012fff1e 	bxeq	lr
    2c0c:	e59f2018 	ldr	r2, [pc, #24]	; 2c2c <register_tm_clones+0x4c>
    2c10:	e7933002 	ldr	r3, [r3, r2]
    2c14:	e3530000 	cmp	r3, #0
    2c18:	012fff1e 	bxeq	lr
    2c1c:	e12fff13 	bx	r3
    2c20:	00019d34 	.word	0x00019d34
    2c24:	00019d30 	.word	0x00019d30
    2c28:	000193fc 	.word	0x000193fc
    2c2c:	00000278 	.word	0x00000278

00002c30 <__do_global_dtors_aux>:
    2c30:	e59f304c 	ldr	r3, [pc, #76]	; 2c84 <__do_global_dtors_aux+0x54>
    2c34:	e59f204c 	ldr	r2, [pc, #76]	; 2c88 <__do_global_dtors_aux+0x58>
    2c38:	e08f3003 	add	r3, pc, r3
    2c3c:	e08f2002 	add	r2, pc, r2
    2c40:	e5d33000 	ldrb	r3, [r3]
    2c44:	e3530000 	cmp	r3, #0
    2c48:	112fff1e 	bxne	lr
    2c4c:	e59f3038 	ldr	r3, [pc, #56]	; 2c8c <__do_global_dtors_aux+0x5c>
    2c50:	e92d4010 	push	{r4, lr}
    2c54:	e7923003 	ldr	r3, [r2, r3]
    2c58:	e3530000 	cmp	r3, #0
    2c5c:	0a000002 	beq	2c6c <__do_global_dtors_aux+0x3c>
    2c60:	e59f3028 	ldr	r3, [pc, #40]	; 2c90 <__do_global_dtors_aux+0x60>
    2c64:	e79f0003 	ldr	r0, [pc, r3]
    2c68:	ebfffe39 	bl	2554 <__cxa_finalize@plt>
    2c6c:	ebffffca 	bl	2b9c <deregister_tm_clones>
    2c70:	e59f301c 	ldr	r3, [pc, #28]	; 2c94 <__do_global_dtors_aux+0x64>
    2c74:	e3a02001 	mov	r2, #1
    2c78:	e08f3003 	add	r3, pc, r3
    2c7c:	e5c32000 	strb	r2, [r3]
    2c80:	e8bd8010 	pop	{r4, pc}
    2c84:	00019ce8 	.word	0x00019ce8
    2c88:	000193bc 	.word	0x000193bc
    2c8c:	00000240 	.word	0x00000240
    2c90:	00019610 	.word	0x00019610
    2c94:	00019ca8 	.word	0x00019ca8

00002c98 <frame_dummy>:
    2c98:	eaffffd0 	b	2be0 <register_tm_clones>
    2c9c:	00000000 	andeq	r0, r0, r0

00002ca0 <pinModeDummy>:
    2ca0:	e12fff1e 	bx	lr

00002ca4 <digitalReadDummy>:
    2ca4:	e3a00000 	mov	r0, #0
    2ca8:	e12fff1e 	bx	lr

00002cac <piGpioLayoutOops>:
    2cac:	e59fc05c 	ldr	ip, [pc, #92]	; 2d10 <piGpioLayoutOops+0x64>
    2cb0:	e59f305c 	ldr	r3, [pc, #92]	; 2d14 <piGpioLayoutOops+0x68>
    2cb4:	e08fc00c 	add	ip, pc, ip
    2cb8:	e92d4010 	push	{r4, lr}
    2cbc:	e1a05000 	mov	r5, r0
    2cc0:	e79c4003 	ldr	r4, [ip, r3]
    2cc4:	e59f004c 	ldr	r0, [pc, #76]	; 2d18 <piGpioLayoutOops+0x6c>
    2cc8:	e3a0203c 	mov	r2, #60	; 0x3c
    2ccc:	e5943000 	ldr	r3, [r4]
    2cd0:	e3a01001 	mov	r1, #1
    2cd4:	e08f0000 	add	r0, pc, r0
    2cd8:	ebfffead 	bl	2794 <fwrite@plt>
    2cdc:	e59f1038 	ldr	r1, [pc, #56]	; 2d1c <piGpioLayoutOops+0x70>
    2ce0:	e1a02005 	mov	r2, r5
    2ce4:	e08f1001 	add	r1, pc, r1
    2ce8:	e5940000 	ldr	r0, [r4]
    2cec:	ebfffef0 	bl	28b4 <fprintf@plt>
    2cf0:	e59f0028 	ldr	r0, [pc, #40]	; 2d20 <piGpioLayoutOops+0x74>
    2cf4:	e5943000 	ldr	r3, [r4]
    2cf8:	e3a02032 	mov	r2, #50	; 0x32
    2cfc:	e3a01001 	mov	r1, #1
    2d00:	e08f0000 	add	r0, pc, r0
    2d04:	ebfffea2 	bl	2794 <fwrite@plt>
    2d08:	e3a00001 	mov	r0, #1
    2d0c:	ebfffed9 	bl	2878 <exit@plt>
    2d10:	00019344 	.word	0x00019344
    2d14:	00000254 	.word	0x00000254
    2d18:	00007d68 	.word	0x00007d68
    2d1c:	00007d98 	.word	0x00007d98
    2d20:	00007d84 	.word	0x00007d84

00002d24 <initialiseEpoch>:
    2d24:	e92d4010 	push	{r4, lr}
    2d28:	e24dd008 	sub	sp, sp, #8
    2d2c:	e1a0100d 	mov	r1, sp
    2d30:	e3a00004 	mov	r0, #4
    2d34:	ebffff5f 	bl	2ab8 <clock_gettime@plt>
    2d38:	e59d3004 	ldr	r3, [sp, #4]
    2d3c:	e59f2048 	ldr	r2, [pc, #72]	; 2d8c <initialiseEpoch+0x68>
    2d40:	e59f1048 	ldr	r1, [pc, #72]	; 2d90 <initialiseEpoch+0x6c>
    2d44:	e1a00fc3 	asr	r0, r3, #31
    2d48:	e0c2c392 	smull	ip, r2, r2, r3
    2d4c:	e0c31391 	smull	r1, r3, r1, r3
    2d50:	e59de000 	ldr	lr, [sp]
    2d54:	e0602942 	rsb	r2, r0, r2, asr #18
    2d58:	e59f4034 	ldr	r4, [pc, #52]	; 2d94 <initialiseEpoch+0x70>
    2d5c:	e0600343 	rsb	r0, r0, r3, asr #6
    2d60:	e3a01ffa 	mov	r1, #1000	; 0x3e8
    2d64:	e1a03fc2 	asr	r3, r2, #31
    2d68:	e0e32e91 	smlal	r2, r3, r1, lr
    2d6c:	e59fc024 	ldr	ip, [pc, #36]	; 2d98 <initialiseEpoch+0x74>
    2d70:	e1a01fc0 	asr	r1, r0, #31
    2d74:	e0e10e94 	smlal	r0, r1, r4, lr
    2d78:	e08fc00c 	add	ip, pc, ip
    2d7c:	e1cc20f0 	strd	r2, [ip]
    2d80:	e1cc00f8 	strd	r0, [ip, #8]
    2d84:	e28dd008 	add	sp, sp, #8
    2d88:	e8bd8010 	pop	{r4, pc}
    2d8c:	431bde83 	.word	0x431bde83
    2d90:	10624dd3 	.word	0x10624dd3
    2d94:	000f4240 	.word	0x000f4240
    2d98:	00019bb0 	.word	0x00019bb0

00002d9c <setupCheck.part.0>:
    2d9c:	e59f3028 	ldr	r3, [pc, #40]	; 2dcc <setupCheck.part.0+0x30>
    2da0:	e59fc028 	ldr	ip, [pc, #40]	; 2dd0 <setupCheck.part.0+0x34>
    2da4:	e08f3003 	add	r3, pc, r3
    2da8:	e92d4010 	push	{r4, lr}
    2dac:	e1a02000 	mov	r2, r0
    2db0:	e793000c 	ldr	r0, [r3, ip]
    2db4:	e59f1018 	ldr	r1, [pc, #24]	; 2dd4 <setupCheck.part.0+0x38>
    2db8:	e08f1001 	add	r1, pc, r1
    2dbc:	e5900000 	ldr	r0, [r0]
    2dc0:	ebfffebb 	bl	28b4 <fprintf@plt>
    2dc4:	e3a00001 	mov	r0, #1
    2dc8:	ebfffeaa 	bl	2878 <exit@plt>
    2dcc:	00019254 	.word	0x00019254
    2dd0:	00000254 	.word	0x00000254
    2dd4:	00007d00 	.word	0x00007d00

00002dd8 <usingGpioMemCheck.part.1>:
    2dd8:	e59f3028 	ldr	r3, [pc, #40]	; 2e08 <usingGpioMemCheck.part.1+0x30>
    2ddc:	e59fc028 	ldr	ip, [pc, #40]	; 2e0c <usingGpioMemCheck.part.1+0x34>
    2de0:	e08f3003 	add	r3, pc, r3
    2de4:	e92d4010 	push	{r4, lr}
    2de8:	e1a02000 	mov	r2, r0
    2dec:	e793000c 	ldr	r0, [r3, ip]
    2df0:	e59f1018 	ldr	r1, [pc, #24]	; 2e10 <usingGpioMemCheck.part.1+0x38>
    2df4:	e08f1001 	add	r1, pc, r1
    2df8:	e5900000 	ldr	r0, [r0]
    2dfc:	ebfffeac 	bl	28b4 <fprintf@plt>
    2e00:	e3a00001 	mov	r0, #1
    2e04:	ebfffe9b 	bl	2878 <exit@plt>
    2e08:	00019218 	.word	0x00019218
    2e0c:	00000254 	.word	0x00000254
    2e10:	00007d3c 	.word	0x00007d3c

00002e14 <pwmWriteDummy>:
    2e14:	e12fff1e 	bx	lr

00002e18 <analogWriteDummy>:
    2e18:	e12fff1e 	bx	lr

00002e1c <pullUpDnControlDummy>:
    2e1c:	e12fff1e 	bx	lr

00002e20 <digitalWriteDummy>:
    2e20:	e12fff1e 	bx	lr

00002e24 <analogReadDummy>:
    2e24:	e3a00000 	mov	r0, #0
    2e28:	e12fff1e 	bx	lr

00002e2c <wiringPiFailure>:
    2e2c:	e92d000e 	push	{r1, r2, r3}
    2e30:	e3500000 	cmp	r0, #0
    2e34:	e92d4030 	push	{r4, r5, lr}
    2e38:	e24ddb01 	sub	sp, sp, #1024	; 0x400
    2e3c:	e59f4074 	ldr	r4, [pc, #116]	; 2eb8 <wiringPiFailure+0x8c>
    2e40:	e24dd008 	sub	sp, sp, #8
    2e44:	e08f4004 	add	r4, pc, r4
    2e48:	1a00000a 	bne	2e78 <wiringPiFailure+0x4c>
    2e4c:	e59f3068 	ldr	r3, [pc, #104]	; 2ebc <wiringPiFailure+0x90>
    2e50:	e7943003 	ldr	r3, [r4, r3]
    2e54:	e5933000 	ldr	r3, [r3]
    2e58:	e3530000 	cmp	r3, #0
    2e5c:	0a000005 	beq	2e78 <wiringPiFailure+0x4c>
    2e60:	e3e00000 	mvn	r0, #0
    2e64:	e28ddb01 	add	sp, sp, #1024	; 0x400
    2e68:	e28dd008 	add	sp, sp, #8
    2e6c:	e8bd4030 	pop	{r4, r5, lr}
    2e70:	e28dd00c 	add	sp, sp, #12
    2e74:	e12fff1e 	bx	lr
    2e78:	e28dce41 	add	ip, sp, #1040	; 0x410
    2e7c:	e28cc008 	add	ip, ip, #8
    2e80:	e28d5008 	add	r5, sp, #8
    2e84:	e1a0300c 	mov	r3, ip
    2e88:	e59d2414 	ldr	r2, [sp, #1044]	; 0x414
    2e8c:	e59f102c 	ldr	r1, [pc, #44]	; 2ec0 <wiringPiFailure+0x94>
    2e90:	e1a00005 	mov	r0, r5
    2e94:	e58dc004 	str	ip, [sp, #4]
    2e98:	ebfffef1 	bl	2a64 <vsnprintf@plt>
    2e9c:	e59f3020 	ldr	r3, [pc, #32]	; 2ec4 <wiringPiFailure+0x98>
    2ea0:	e1a00005 	mov	r0, r5
    2ea4:	e7943003 	ldr	r3, [r4, r3]
    2ea8:	e5931000 	ldr	r1, [r3]
    2eac:	ebffff13 	bl	2b00 <fputs@plt>
    2eb0:	e3a00001 	mov	r0, #1
    2eb4:	ebfffe6f 	bl	2878 <exit@plt>
    2eb8:	000191b4 	.word	0x000191b4
    2ebc:	00000270 	.word	0x00000270
    2ec0:	000003ff 	.word	0x000003ff
    2ec4:	00000254 	.word	0x00000254

00002ec8 <piGpioLayout>:
    2ec8:	e59f332c 	ldr	r3, [pc, #812]	; 31fc <piGpioLayout+0x334>
    2ecc:	e92d40f0 	push	{r4, r5, r6, r7, lr}
    2ed0:	e08f3003 	add	r3, pc, r3
    2ed4:	e59f7324 	ldr	r7, [pc, #804]	; 3200 <piGpioLayout+0x338>
    2ed8:	e5930000 	ldr	r0, [r3]
    2edc:	e08f7007 	add	r7, pc, r7
    2ee0:	e3700001 	cmn	r0, #1
    2ee4:	e24dd07c 	sub	sp, sp, #124	; 0x7c
    2ee8:	0a000001 	beq	2ef4 <piGpioLayout+0x2c>
    2eec:	e28dd07c 	add	sp, sp, #124	; 0x7c
    2ef0:	e8bd80f0 	pop	{r4, r5, r6, r7, pc}
    2ef4:	e59f1308 	ldr	r1, [pc, #776]	; 3204 <piGpioLayout+0x33c>
    2ef8:	e59f0308 	ldr	r0, [pc, #776]	; 3208 <piGpioLayout+0x340>
    2efc:	e08f1001 	add	r1, pc, r1
    2f00:	e08f0000 	add	r0, pc, r0
    2f04:	ebfffda7 	bl	25a8 <fopen@plt>
    2f08:	e2506000 	subs	r6, r0, #0
    2f0c:	0a0000b7 	beq	31f0 <piGpioLayout+0x328>
    2f10:	e59f52f4 	ldr	r5, [pc, #756]	; 320c <piGpioLayout+0x344>
    2f14:	e1a0400d 	mov	r4, sp
    2f18:	e08f5005 	add	r5, pc, r5
    2f1c:	ea000004 	b	2f34 <piGpioLayout+0x6c>
    2f20:	e1a01005 	mov	r1, r5
    2f24:	e1a00004 	mov	r0, r4
    2f28:	ebfffef7 	bl	2b0c <strncmp@plt>
    2f2c:	e3500000 	cmp	r0, #0
    2f30:	0a00000c 	beq	2f68 <piGpioLayout+0xa0>
    2f34:	e1a02006 	mov	r2, r6
    2f38:	e3a01078 	mov	r1, #120	; 0x78
    2f3c:	e1a00004 	mov	r0, r4
    2f40:	ebfffdb3 	bl	2614 <fgets@plt>
    2f44:	e3a02008 	mov	r2, #8
    2f48:	e3500000 	cmp	r0, #0
    2f4c:	1afffff3 	bne	2f20 <piGpioLayout+0x58>
    2f50:	e59f12b8 	ldr	r1, [pc, #696]	; 3210 <piGpioLayout+0x348>
    2f54:	e1a00004 	mov	r0, r4
    2f58:	e08f1001 	add	r1, pc, r1
    2f5c:	ebfffeea 	bl	2b0c <strncmp@plt>
    2f60:	e3500000 	cmp	r0, #0
    2f64:	1a000092 	bne	31b4 <piGpioLayout+0x2ec>
    2f68:	e59f32a4 	ldr	r3, [pc, #676]	; 3214 <piGpioLayout+0x34c>
    2f6c:	e7975003 	ldr	r5, [r7, r3]
    2f70:	e5953000 	ldr	r3, [r5]
    2f74:	e3530000 	cmp	r3, #0
    2f78:	1a000088 	bne	31a0 <piGpioLayout+0x2d8>
    2f7c:	e59f7294 	ldr	r7, [pc, #660]	; 3218 <piGpioLayout+0x350>
    2f80:	e1a00006 	mov	r0, r6
    2f84:	ebfffdd5 	bl	26e0 <rewind@plt>
    2f88:	e08f7007 	add	r7, pc, r7
    2f8c:	ea000005 	b	2fa8 <piGpioLayout+0xe0>
    2f90:	e3a02008 	mov	r2, #8
    2f94:	e1a01007 	mov	r1, r7
    2f98:	e1a00004 	mov	r0, r4
    2f9c:	ebfffeda 	bl	2b0c <strncmp@plt>
    2fa0:	e3500000 	cmp	r0, #0
    2fa4:	0a000005 	beq	2fc0 <piGpioLayout+0xf8>
    2fa8:	e1a02006 	mov	r2, r6
    2fac:	e3a01078 	mov	r1, #120	; 0x78
    2fb0:	e1a00004 	mov	r0, r4
    2fb4:	ebfffd96 	bl	2614 <fgets@plt>
    2fb8:	e3500000 	cmp	r0, #0
    2fbc:	1afffff3 	bne	2f90 <piGpioLayout+0xc8>
    2fc0:	e1a00006 	mov	r0, r6
    2fc4:	ebfffe7c 	bl	29bc <fclose@plt>
    2fc8:	e59f124c 	ldr	r1, [pc, #588]	; 321c <piGpioLayout+0x354>
    2fcc:	e3a02008 	mov	r2, #8
    2fd0:	e08f1001 	add	r1, pc, r1
    2fd4:	e1a00004 	mov	r0, r4
    2fd8:	ebfffecb 	bl	2b0c <strncmp@plt>
    2fdc:	e2506000 	subs	r6, r0, #0
    2fe0:	1a00007c 	bne	31d8 <piGpioLayout+0x310>
    2fe4:	e1a00004 	mov	r0, r4
    2fe8:	ebfffe2b 	bl	289c <strlen@plt>
    2fec:	e28d3078 	add	r3, sp, #120	; 0x78
    2ff0:	e2400001 	sub	r0, r0, #1
    2ff4:	e0833000 	add	r3, r3, r0
    2ff8:	e0840000 	add	r0, r4, r0
    2ffc:	e5533078 	ldrb	r3, [r3, #-120]	; 0xffffff88
    3000:	e353000a 	cmp	r3, #10
    3004:	1353000d 	cmpne	r3, #13
    3008:	1a000005 	bne	3024 <piGpioLayout+0x15c>
    300c:	e1a02006 	mov	r2, r6
    3010:	e5c02000 	strb	r2, [r0]
    3014:	e5703001 	ldrb	r3, [r0, #-1]!
    3018:	e353000d 	cmp	r3, #13
    301c:	1353000a 	cmpne	r3, #10
    3020:	0afffffa 	beq	3010 <piGpioLayout+0x148>
    3024:	e5953000 	ldr	r3, [r5]
    3028:	e3530000 	cmp	r3, #0
    302c:	1a000056 	bne	318c <piGpioLayout+0x2c4>
    3030:	e5dd3000 	ldrb	r3, [sp]
    3034:	e3530000 	cmp	r3, #0
    3038:	1a000003 	bne	304c <piGpioLayout+0x184>
    303c:	ea000068 	b	31e4 <piGpioLayout+0x31c>
    3040:	e5f43001 	ldrb	r3, [r4, #1]!
    3044:	e3530000 	cmp	r3, #0
    3048:	0a000065 	beq	31e4 <piGpioLayout+0x31c>
    304c:	e353003a 	cmp	r3, #58	; 0x3a
    3050:	1afffffa 	bne	3040 <piGpioLayout+0x178>
    3054:	ebfffe04 	bl	286c <__ctype_b_loc@plt>
    3058:	e2844001 	add	r4, r4, #1
    305c:	e5902000 	ldr	r2, [r0]
    3060:	e1a06004 	mov	r6, r4
    3064:	e2844001 	add	r4, r4, #1
    3068:	e5d63000 	ldrb	r3, [r6]
    306c:	e1a03083 	lsl	r3, r3, #1
    3070:	e19230b3 	ldrh	r3, [r2, r3]
    3074:	e3130a02 	tst	r3, #8192	; 0x2000
    3078:	1afffff8 	bne	3060 <piGpioLayout+0x198>
    307c:	e3130a01 	tst	r3, #4096	; 0x1000
    3080:	0a00004e 	beq	31c0 <piGpioLayout+0x2f8>
    3084:	e1a00006 	mov	r0, r6
    3088:	ebfffe03 	bl	289c <strlen@plt>
    308c:	e3500003 	cmp	r0, #3
    3090:	9a00004d 	bls	31cc <piGpioLayout+0x304>
    3094:	e5954000 	ldr	r4, [r5]
    3098:	e2400004 	sub	r0, r0, #4
    309c:	e3540000 	cmp	r4, #0
    30a0:	e0866000 	add	r6, r6, r0
    30a4:	1a000019 	bne	3110 <piGpioLayout+0x248>
    30a8:	e59f1170 	ldr	r1, [pc, #368]	; 3220 <piGpioLayout+0x358>
    30ac:	e1a00006 	mov	r0, r6
    30b0:	e08f1001 	add	r1, pc, r1
    30b4:	ebfffd23 	bl	2548 <strcmp@plt>
    30b8:	e3500000 	cmp	r0, #0
    30bc:	0a00000c 	beq	30f4 <piGpioLayout+0x22c>
    30c0:	e59f115c 	ldr	r1, [pc, #348]	; 3224 <piGpioLayout+0x35c>
    30c4:	e1a00006 	mov	r0, r6
    30c8:	e08f1001 	add	r1, pc, r1
    30cc:	ebfffd1d 	bl	2548 <strcmp@plt>
    30d0:	e3500000 	cmp	r0, #0
    30d4:	13a00002 	movne	r0, #2
    30d8:	1a00001f 	bne	315c <piGpioLayout+0x294>
    30dc:	e59f3144 	ldr	r3, [pc, #324]	; 3228 <piGpioLayout+0x360>
    30e0:	e3a02001 	mov	r2, #1
    30e4:	e08f3003 	add	r3, pc, r3
    30e8:	e1a00002 	mov	r0, r2
    30ec:	e5832000 	str	r2, [r3]
    30f0:	eaffff7d 	b	2eec <piGpioLayout+0x24>
    30f4:	e59f3130 	ldr	r3, [pc, #304]	; 322c <piGpioLayout+0x364>
    30f8:	e3a02001 	mov	r2, #1
    30fc:	e08f3003 	add	r3, pc, r3
    3100:	e1a00002 	mov	r0, r2
    3104:	e5832000 	str	r2, [r3]
    3108:	e28dd07c 	add	sp, sp, #124	; 0x7c
    310c:	e8bd80f0 	pop	{r4, r5, r6, r7, pc}
    3110:	e59f0118 	ldr	r0, [pc, #280]	; 3230 <piGpioLayout+0x368>
    3114:	e1a01006 	mov	r1, r6
    3118:	e08f0000 	add	r0, pc, r0
    311c:	ebfffd1b 	bl	2590 <printf@plt>
    3120:	e59f110c 	ldr	r1, [pc, #268]	; 3234 <piGpioLayout+0x36c>
    3124:	e1a00006 	mov	r0, r6
    3128:	e08f1001 	add	r1, pc, r1
    312c:	ebfffd05 	bl	2548 <strcmp@plt>
    3130:	e5954000 	ldr	r4, [r5]
    3134:	e3500000 	cmp	r0, #0
    3138:	03a00001 	moveq	r0, #1
    313c:	0a000006 	beq	315c <piGpioLayout+0x294>
    3140:	e59f10f0 	ldr	r1, [pc, #240]	; 3238 <piGpioLayout+0x370>
    3144:	e1a00006 	mov	r0, r6
    3148:	e08f1001 	add	r1, pc, r1
    314c:	ebfffcfd 	bl	2548 <strcmp@plt>
    3150:	e3500000 	cmp	r0, #0
    3154:	03a00001 	moveq	r0, #1
    3158:	13a00002 	movne	r0, #2
    315c:	e59f50d8 	ldr	r5, [pc, #216]	; 323c <piGpioLayout+0x374>
    3160:	e3540000 	cmp	r4, #0
    3164:	e08f5005 	add	r5, pc, r5
    3168:	e5850000 	str	r0, [r5]
    316c:	0affff5e 	beq	2eec <piGpioLayout+0x24>
    3170:	e1a01000 	mov	r1, r0
    3174:	e59f00c4 	ldr	r0, [pc, #196]	; 3240 <piGpioLayout+0x378>
    3178:	e08f0000 	add	r0, pc, r0
    317c:	ebfffd03 	bl	2590 <printf@plt>
    3180:	e5950000 	ldr	r0, [r5]
    3184:	e28dd07c 	add	sp, sp, #124	; 0x7c
    3188:	e8bd80f0 	pop	{r4, r5, r6, r7, pc}
    318c:	e59f00b0 	ldr	r0, [pc, #176]	; 3244 <piGpioLayout+0x37c>
    3190:	e1a01004 	mov	r1, r4
    3194:	e08f0000 	add	r0, pc, r0
    3198:	ebfffcfc 	bl	2590 <printf@plt>
    319c:	eaffffa3 	b	3030 <piGpioLayout+0x168>
    31a0:	e59f00a0 	ldr	r0, [pc, #160]	; 3248 <piGpioLayout+0x380>
    31a4:	e1a01004 	mov	r1, r4
    31a8:	e08f0000 	add	r0, pc, r0
    31ac:	ebfffcf7 	bl	2590 <printf@plt>
    31b0:	eaffff71 	b	2f7c <piGpioLayout+0xb4>
    31b4:	e59f0090 	ldr	r0, [pc, #144]	; 324c <piGpioLayout+0x384>
    31b8:	e08f0000 	add	r0, pc, r0
    31bc:	ebfffeba 	bl	2cac <piGpioLayoutOops>
    31c0:	e59f0088 	ldr	r0, [pc, #136]	; 3250 <piGpioLayout+0x388>
    31c4:	e08f0000 	add	r0, pc, r0
    31c8:	ebfffeb7 	bl	2cac <piGpioLayoutOops>
    31cc:	e59f0080 	ldr	r0, [pc, #128]	; 3254 <piGpioLayout+0x38c>
    31d0:	e08f0000 	add	r0, pc, r0
    31d4:	ebfffeb4 	bl	2cac <piGpioLayoutOops>
    31d8:	e59f0078 	ldr	r0, [pc, #120]	; 3258 <piGpioLayout+0x390>
    31dc:	e08f0000 	add	r0, pc, r0
    31e0:	ebfffeb1 	bl	2cac <piGpioLayoutOops>
    31e4:	e59f0070 	ldr	r0, [pc, #112]	; 325c <piGpioLayout+0x394>
    31e8:	e08f0000 	add	r0, pc, r0
    31ec:	ebfffeae 	bl	2cac <piGpioLayoutOops>
    31f0:	e59f0068 	ldr	r0, [pc, #104]	; 3260 <piGpioLayout+0x398>
    31f4:	e08f0000 	add	r0, pc, r0
    31f8:	ebfffeab 	bl	2cac <piGpioLayoutOops>
    31fc:	000193a8 	.word	0x000193a8
    3200:	0001911c 	.word	0x0001911c
    3204:	00007c70 	.word	0x00007c70
    3208:	00007c70 	.word	0x00007c70
    320c:	00007c88 	.word	0x00007c88
    3210:	00007c48 	.word	0x00007c48
    3214:	00000248 	.word	0x00000248
    3218:	00007c54 	.word	0x00007c54
    321c:	00007c0c 	.word	0x00007c0c
    3220:	00007bf0 	.word	0x00007bf0
    3224:	00007be0 	.word	0x00007be0
    3228:	00019194 	.word	0x00019194
    322c:	0001917c 	.word	0x0001917c
    3230:	00007b64 	.word	0x00007b64
    3234:	00007b78 	.word	0x00007b78
    3238:	00007b60 	.word	0x00007b60
    323c:	00019114 	.word	0x00019114
    3240:	00007b38 	.word	0x00007b38
    3244:	00007a68 	.word	0x00007a68
    3248:	00007a18 	.word	0x00007a18
    324c:	000079f4 	.word	0x000079f4
    3250:	00007a5c 	.word	0x00007a5c
    3254:	00007a8c 	.word	0x00007a8c
    3258:	00007a0c 	.word	0x00007a0c
    325c:	00007af4 	.word	0x00007af4
    3260:	0000798c 	.word	0x0000798c

00003264 <piBoardRev>:
    3264:	eafffd5c 	b	27dc <piGpioLayout@plt>

00003268 <piBoardId>:
    3268:	e92d4ff0 	push	{r4, r5, r6, r7, r8, r9, sl, fp, lr}
    326c:	e24dd08c 	sub	sp, sp, #140	; 0x8c
    3270:	e1a07001 	mov	r7, r1
    3274:	e1a08002 	mov	r8, r2
    3278:	e1a09003 	mov	r9, r3
    327c:	e1a06000 	mov	r6, r0
    3280:	ebfffd55 	bl	27dc <piGpioLayout@plt>
    3284:	e59f16b8 	ldr	r1, [pc, #1720]	; 3944 <piBoardId+0x6dc>
    3288:	e59f06b8 	ldr	r0, [pc, #1720]	; 3948 <piBoardId+0x6e0>
    328c:	e08f1001 	add	r1, pc, r1
    3290:	e08f0000 	add	r0, pc, r0
    3294:	ebfffcc3 	bl	25a8 <fopen@plt>
    3298:	e59fa6ac 	ldr	sl, [pc, #1708]	; 394c <piBoardId+0x6e4>
    329c:	e08fa00a 	add	sl, pc, sl
    32a0:	e2505000 	subs	r5, r0, #0
    32a4:	0a000151 	beq	37f0 <piBoardId+0x588>
    32a8:	e59fb6a0 	ldr	fp, [pc, #1696]	; 3950 <piBoardId+0x6e8>
    32ac:	e28d4010 	add	r4, sp, #16
    32b0:	e08fb00b 	add	fp, pc, fp
    32b4:	ea000005 	b	32d0 <piBoardId+0x68>
    32b8:	e3a02008 	mov	r2, #8
    32bc:	e1a0100b 	mov	r1, fp
    32c0:	e1a00004 	mov	r0, r4
    32c4:	ebfffe10 	bl	2b0c <strncmp@plt>
    32c8:	e3500000 	cmp	r0, #0
    32cc:	0a000005 	beq	32e8 <piBoardId+0x80>
    32d0:	e1a02005 	mov	r2, r5
    32d4:	e3a01078 	mov	r1, #120	; 0x78
    32d8:	e1a00004 	mov	r0, r4
    32dc:	ebfffccc 	bl	2614 <fgets@plt>
    32e0:	e3500000 	cmp	r0, #0
    32e4:	1afffff3 	bne	32b8 <piBoardId+0x50>
    32e8:	e1a00005 	mov	r0, r5
    32ec:	ebfffdb2 	bl	29bc <fclose@plt>
    32f0:	e59f165c 	ldr	r1, [pc, #1628]	; 3954 <piBoardId+0x6ec>
    32f4:	e3a02008 	mov	r2, #8
    32f8:	e08f1001 	add	r1, pc, r1
    32fc:	e1a00004 	mov	r0, r4
    3300:	ebfffe01 	bl	2b0c <strncmp@plt>
    3304:	e2505000 	subs	r5, r0, #0
    3308:	1a00013e 	bne	3808 <piBoardId+0x5a0>
    330c:	e1a00004 	mov	r0, r4
    3310:	ebfffd61 	bl	289c <strlen@plt>
    3314:	e28d3088 	add	r3, sp, #136	; 0x88
    3318:	e2400001 	sub	r0, r0, #1
    331c:	e0833000 	add	r3, r3, r0
    3320:	e0840000 	add	r0, r4, r0
    3324:	e5533078 	ldrb	r3, [r3, #-120]	; 0xffffff88
    3328:	e353000a 	cmp	r3, #10
    332c:	1353000d 	cmpne	r3, #13
    3330:	1a000004 	bne	3348 <piBoardId+0xe0>
    3334:	e5c05000 	strb	r5, [r0]
    3338:	e5703001 	ldrb	r3, [r0, #-1]!
    333c:	e353000d 	cmp	r3, #13
    3340:	1353000a 	cmpne	r3, #10
    3344:	0afffffa 	beq	3334 <piBoardId+0xcc>
    3348:	e59f3608 	ldr	r3, [pc, #1544]	; 3958 <piBoardId+0x6f0>
    334c:	e79a5003 	ldr	r5, [sl, r3]
    3350:	e5953000 	ldr	r3, [r5]
    3354:	e3530000 	cmp	r3, #0
    3358:	1a000059 	bne	34c4 <piBoardId+0x25c>
    335c:	e5dd3010 	ldrb	r3, [sp, #16]
    3360:	e3530000 	cmp	r3, #0
    3364:	1a000003 	bne	3378 <piBoardId+0x110>
    3368:	ea00011d 	b	37e4 <piBoardId+0x57c>
    336c:	e5f43001 	ldrb	r3, [r4, #1]!
    3370:	e3530000 	cmp	r3, #0
    3374:	0a00011a 	beq	37e4 <piBoardId+0x57c>
    3378:	e353003a 	cmp	r3, #58	; 0x3a
    337c:	1afffffa 	bne	336c <piBoardId+0x104>
    3380:	ebfffd39 	bl	286c <__ctype_b_loc@plt>
    3384:	e1a0a000 	mov	sl, r0
    3388:	e2840001 	add	r0, r4, #1
    338c:	e59a2000 	ldr	r2, [sl]
    3390:	e1a04000 	mov	r4, r0
    3394:	e2800001 	add	r0, r0, #1
    3398:	e5d43000 	ldrb	r3, [r4]
    339c:	e1a03083 	lsl	r3, r3, #1
    33a0:	e19230b3 	ldrh	r3, [r2, r3]
    33a4:	e2131a02 	ands	r1, r3, #8192	; 0x2000
    33a8:	1afffff8 	bne	3390 <piBoardId+0x128>
    33ac:	e3130a01 	tst	r3, #4096	; 0x1000
    33b0:	0a0000d4 	beq	3708 <piBoardId+0x4a0>
    33b4:	e3a02010 	mov	r2, #16
    33b8:	e1a00004 	mov	r0, r4
    33bc:	ebfffc67 	bl	2560 <strtol@plt>
    33c0:	e5953000 	ldr	r3, [r5]
    33c4:	e3100502 	tst	r0, #8388608	; 0x800000
    33c8:	e1a0b000 	mov	fp, r0
    33cc:	1a00001f 	bne	3450 <piBoardId+0x1e8>
    33d0:	e3530000 	cmp	r3, #0
    33d4:	1a00005e 	bne	3554 <piBoardId+0x2ec>
    33d8:	e5d43000 	ldrb	r3, [r4]
    33dc:	e59a2000 	ldr	r2, [sl]
    33e0:	e1a03083 	lsl	r3, r3, #1
    33e4:	e19230b3 	ldrh	r3, [r2, r3]
    33e8:	e3130b02 	tst	r3, #2048	; 0x800
    33ec:	0a000102 	beq	37fc <piBoardId+0x594>
    33f0:	e1a00004 	mov	r0, r4
    33f4:	ebfffd28 	bl	289c <strlen@plt>
    33f8:	e3500003 	cmp	r0, #3
    33fc:	9a0000c4 	bls	3714 <piBoardId+0x4ac>
    3400:	e2403004 	sub	r3, r0, #4
    3404:	e0844003 	add	r4, r4, r3
    3408:	e59d30b0 	ldr	r3, [sp, #176]	; 0xb0
    340c:	e3500004 	cmp	r0, #4
    3410:	e59f1544 	ldr	r1, [pc, #1348]	; 395c <piBoardId+0x6f4>
    3414:	93a00000 	movls	r0, #0
    3418:	83a00001 	movhi	r0, #1
    341c:	e5830000 	str	r0, [r3]
    3420:	e08f1001 	add	r1, pc, r1
    3424:	e1a00004 	mov	r0, r4
    3428:	ebfffc46 	bl	2548 <strcmp@plt>
    342c:	e3500000 	cmp	r0, #0
    3430:	1a000028 	bne	34d8 <piBoardId+0x270>
    3434:	e3a03001 	mov	r3, #1
    3438:	e5863000 	str	r3, [r6]
    343c:	e5870000 	str	r0, [r7]
    3440:	e5880000 	str	r0, [r8]
    3444:	e5893000 	str	r3, [r9]
    3448:	e28dd08c 	add	sp, sp, #140	; 0x8c
    344c:	e8bd8ff0 	pop	{r4, r5, r6, r7, r8, r9, sl, fp, pc}
    3450:	e3530000 	cmp	r3, #0
    3454:	1a000039 	bne	3540 <piBoardId+0x2d8>
    3458:	e59d30b0 	ldr	r3, [sp, #176]	; 0xb0
    345c:	e1a0222b 	lsr	r2, fp, #4
    3460:	e31b0403 	tst	fp, #50331648	; 0x3000000
    3464:	e1a0ca2b 	lsr	ip, fp, #20
    3468:	e1a0082b 	lsr	r0, fp, #16
    346c:	13a0e001 	movne	lr, #1
    3470:	03a0e000 	moveq	lr, #0
    3474:	e6ef2072 	uxtb	r2, r2
    3478:	e20cc007 	and	ip, ip, #7
    347c:	e200000f 	and	r0, r0, #15
    3480:	e20b100f 	and	r1, fp, #15
    3484:	e5862000 	str	r2, [r6]
    3488:	e5871000 	str	r1, [r7]
    348c:	e588c000 	str	ip, [r8]
    3490:	e5890000 	str	r0, [r9]
    3494:	e583e000 	str	lr, [r3]
    3498:	e5953000 	ldr	r3, [r5]
    349c:	e3530000 	cmp	r3, #0
    34a0:	0affffe8 	beq	3448 <piBoardId+0x1e0>
    34a4:	e88d5001 	stm	sp, {r0, ip, lr}
    34a8:	e1a0362b 	lsr	r3, fp, #12
    34ac:	e59f04ac 	ldr	r0, [pc, #1196]	; 3960 <piBoardId+0x6f8>
    34b0:	e203300f 	and	r3, r3, #15
    34b4:	e08f0000 	add	r0, pc, r0
    34b8:	ebfffc34 	bl	2590 <printf@plt>
    34bc:	e28dd08c 	add	sp, sp, #140	; 0x8c
    34c0:	e8bd8ff0 	pop	{r4, r5, r6, r7, r8, r9, sl, fp, pc}
    34c4:	e59f0498 	ldr	r0, [pc, #1176]	; 3964 <piBoardId+0x6fc>
    34c8:	e1a01004 	mov	r1, r4
    34cc:	e08f0000 	add	r0, pc, r0
    34d0:	ebfffc2e 	bl	2590 <printf@plt>
    34d4:	eaffffa0 	b	335c <piBoardId+0xf4>
    34d8:	e59f1488 	ldr	r1, [pc, #1160]	; 3968 <piBoardId+0x700>
    34dc:	e1a00004 	mov	r0, r4
    34e0:	e08f1001 	add	r1, pc, r1
    34e4:	ebfffc17 	bl	2548 <strcmp@plt>
    34e8:	e3500000 	cmp	r0, #0
    34ec:	0a00000c 	beq	3524 <piBoardId+0x2bc>
    34f0:	e59f1474 	ldr	r1, [pc, #1140]	; 396c <piBoardId+0x704>
    34f4:	e1a00004 	mov	r0, r4
    34f8:	e08f1001 	add	r1, pc, r1
    34fc:	ebfffc11 	bl	2548 <strcmp@plt>
    3500:	e3500000 	cmp	r0, #0
    3504:	1a000017 	bne	3568 <piBoardId+0x300>
    3508:	e3a02001 	mov	r2, #1
    350c:	e3a03002 	mov	r3, #2
    3510:	e5862000 	str	r2, [r6]
    3514:	e5873000 	str	r3, [r7]
    3518:	e5880000 	str	r0, [r8]
    351c:	e5890000 	str	r0, [r9]
    3520:	eaffffc8 	b	3448 <piBoardId+0x1e0>
    3524:	e3a03001 	mov	r3, #1
    3528:	e5863000 	str	r3, [r6]
    352c:	e5873000 	str	r3, [r7]
    3530:	e5880000 	str	r0, [r8]
    3534:	e5893000 	str	r3, [r9]
    3538:	e28dd08c 	add	sp, sp, #140	; 0x8c
    353c:	e8bd8ff0 	pop	{r4, r5, r6, r7, r8, r9, sl, fp, pc}
    3540:	e1a01000 	mov	r1, r0
    3544:	e59f0424 	ldr	r0, [pc, #1060]	; 3970 <piBoardId+0x708>
    3548:	e08f0000 	add	r0, pc, r0
    354c:	ebfffc0f 	bl	2590 <printf@plt>
    3550:	eaffffc0 	b	3458 <piBoardId+0x1f0>
    3554:	e59f0418 	ldr	r0, [pc, #1048]	; 3974 <piBoardId+0x70c>
    3558:	e1a01004 	mov	r1, r4
    355c:	e08f0000 	add	r0, pc, r0
    3560:	ebfffc0a 	bl	2590 <printf@plt>
    3564:	eaffff9b 	b	33d8 <piBoardId+0x170>
    3568:	e59f1408 	ldr	r1, [pc, #1032]	; 3978 <piBoardId+0x710>
    356c:	e1a00004 	mov	r0, r4
    3570:	e08f1001 	add	r1, pc, r1
    3574:	ebfffbf3 	bl	2548 <strcmp@plt>
    3578:	e3500000 	cmp	r0, #0
    357c:	0a000017 	beq	35e0 <piBoardId+0x378>
    3580:	e59f13f4 	ldr	r1, [pc, #1012]	; 397c <piBoardId+0x714>
    3584:	e1a00004 	mov	r0, r4
    3588:	e08f1001 	add	r1, pc, r1
    358c:	ebfffbed 	bl	2548 <strcmp@plt>
    3590:	e3500000 	cmp	r0, #0
    3594:	0a000011 	beq	35e0 <piBoardId+0x378>
    3598:	e59f13e0 	ldr	r1, [pc, #992]	; 3980 <piBoardId+0x718>
    359c:	e1a00004 	mov	r0, r4
    35a0:	e08f1001 	add	r1, pc, r1
    35a4:	ebfffbe7 	bl	2548 <strcmp@plt>
    35a8:	e3500000 	cmp	r0, #0
    35ac:	0a000013 	beq	3600 <piBoardId+0x398>
    35b0:	e59f13cc 	ldr	r1, [pc, #972]	; 3984 <piBoardId+0x71c>
    35b4:	e1a00004 	mov	r0, r4
    35b8:	e08f1001 	add	r1, pc, r1
    35bc:	ebfffbe1 	bl	2548 <strcmp@plt>
    35c0:	e3500000 	cmp	r0, #0
    35c4:	1a000015 	bne	3620 <piBoardId+0x3b8>
    35c8:	e3a03002 	mov	r3, #2
    35cc:	e5860000 	str	r0, [r6]
    35d0:	e5873000 	str	r3, [r7]
    35d4:	e5880000 	str	r0, [r8]
    35d8:	e5890000 	str	r0, [r9]
    35dc:	eaffff99 	b	3448 <piBoardId+0x1e0>
    35e0:	e3a03001 	mov	r3, #1
    35e4:	e3a01002 	mov	r1, #2
    35e8:	e3a02000 	mov	r2, #0
    35ec:	e5863000 	str	r3, [r6]
    35f0:	e5871000 	str	r1, [r7]
    35f4:	e5882000 	str	r2, [r8]
    35f8:	e5893000 	str	r3, [r9]
    35fc:	eaffff91 	b	3448 <piBoardId+0x1e0>
    3600:	e3a03000 	mov	r3, #0
    3604:	e3a01002 	mov	r1, #2
    3608:	e3a02001 	mov	r2, #1
    360c:	e5863000 	str	r3, [r6]
    3610:	e5871000 	str	r1, [r7]
    3614:	e5883000 	str	r3, [r8]
    3618:	e5892000 	str	r2, [r9]
    361c:	eaffff89 	b	3448 <piBoardId+0x1e0>
    3620:	e59f1360 	ldr	r1, [pc, #864]	; 3988 <piBoardId+0x720>
    3624:	e1a00004 	mov	r0, r4
    3628:	e08f1001 	add	r1, pc, r1
    362c:	ebfffbc5 	bl	2548 <strcmp@plt>
    3630:	e3500000 	cmp	r0, #0
    3634:	0afffff1 	beq	3600 <piBoardId+0x398>
    3638:	e59f134c 	ldr	r1, [pc, #844]	; 398c <piBoardId+0x724>
    363c:	e1a00004 	mov	r0, r4
    3640:	e08f1001 	add	r1, pc, r1
    3644:	ebfffbbf 	bl	2548 <strcmp@plt>
    3648:	e3500000 	cmp	r0, #0
    364c:	0a00000c 	beq	3684 <piBoardId+0x41c>
    3650:	e59f1338 	ldr	r1, [pc, #824]	; 3990 <piBoardId+0x728>
    3654:	e1a00004 	mov	r0, r4
    3658:	e08f1001 	add	r1, pc, r1
    365c:	ebfffbb9 	bl	2548 <strcmp@plt>
    3660:	e3500000 	cmp	r0, #0
    3664:	1a00000d 	bne	36a0 <piBoardId+0x438>
    3668:	e3a03001 	mov	r3, #1
    366c:	e3a02002 	mov	r2, #2
    3670:	e5863000 	str	r3, [r6]
    3674:	e5872000 	str	r2, [r7]
    3678:	e5883000 	str	r3, [r8]
    367c:	e5890000 	str	r0, [r9]
    3680:	eaffff70 	b	3448 <piBoardId+0x1e0>
    3684:	e3a03001 	mov	r3, #1
    3688:	e3a02002 	mov	r2, #2
    368c:	e5863000 	str	r3, [r6]
    3690:	e5872000 	str	r2, [r7]
    3694:	e5883000 	str	r3, [r8]
    3698:	e5893000 	str	r3, [r9]
    369c:	eaffff69 	b	3448 <piBoardId+0x1e0>
    36a0:	e59f12ec 	ldr	r1, [pc, #748]	; 3994 <piBoardId+0x72c>
    36a4:	e1a00004 	mov	r0, r4
    36a8:	e08f1001 	add	r1, pc, r1
    36ac:	ebfffba5 	bl	2548 <strcmp@plt>
    36b0:	e3500000 	cmp	r0, #0
    36b4:	0afffff2 	beq	3684 <piBoardId+0x41c>
    36b8:	e59f12d8 	ldr	r1, [pc, #728]	; 3998 <piBoardId+0x730>
    36bc:	e1a00004 	mov	r0, r4
    36c0:	e08f1001 	add	r1, pc, r1
    36c4:	ebfffb9f 	bl	2548 <strcmp@plt>
    36c8:	e3500000 	cmp	r0, #0
    36cc:	0a000027 	beq	3770 <piBoardId+0x508>
    36d0:	e59f12c4 	ldr	r1, [pc, #708]	; 399c <piBoardId+0x734>
    36d4:	e1a00004 	mov	r0, r4
    36d8:	e08f1001 	add	r1, pc, r1
    36dc:	ebfffb99 	bl	2548 <strcmp@plt>
    36e0:	e3500000 	cmp	r0, #0
    36e4:	1a00000d 	bne	3720 <piBoardId+0x4b8>
    36e8:	e3a02003 	mov	r2, #3
    36ec:	e5862000 	str	r2, [r6]
    36f0:	e3a03002 	mov	r3, #2
    36f4:	e3a02001 	mov	r2, #1
    36f8:	e5873000 	str	r3, [r7]
    36fc:	e5882000 	str	r2, [r8]
    3700:	e5893000 	str	r3, [r9]
    3704:	eaffff4f 	b	3448 <piBoardId+0x1e0>
    3708:	e59f0290 	ldr	r0, [pc, #656]	; 39a0 <piBoardId+0x738>
    370c:	e08f0000 	add	r0, pc, r0
    3710:	ebfffd65 	bl	2cac <piGpioLayoutOops>
    3714:	e59f0288 	ldr	r0, [pc, #648]	; 39a4 <piBoardId+0x73c>
    3718:	e08f0000 	add	r0, pc, r0
    371c:	ebfffd62 	bl	2cac <piGpioLayoutOops>
    3720:	e59f1280 	ldr	r1, [pc, #640]	; 39a8 <piBoardId+0x740>
    3724:	e1a00004 	mov	r0, r4
    3728:	e08f1001 	add	r1, pc, r1
    372c:	ebfffb85 	bl	2548 <strcmp@plt>
    3730:	e3500000 	cmp	r0, #0
    3734:	0a00000d 	beq	3770 <piBoardId+0x508>
    3738:	e59f126c 	ldr	r1, [pc, #620]	; 39ac <piBoardId+0x744>
    373c:	e1a00004 	mov	r0, r4
    3740:	e08f1001 	add	r1, pc, r1
    3744:	ebfffb7f 	bl	2548 <strcmp@plt>
    3748:	e3500000 	cmp	r0, #0
    374c:	1a000010 	bne	3794 <piBoardId+0x52c>
    3750:	e3a03003 	mov	r3, #3
    3754:	e5863000 	str	r3, [r6]
    3758:	e3a02002 	mov	r2, #2
    375c:	e3a03001 	mov	r3, #1
    3760:	e5872000 	str	r2, [r7]
    3764:	e5883000 	str	r3, [r8]
    3768:	e5893000 	str	r3, [r9]
    376c:	eaffff35 	b	3448 <piBoardId+0x1e0>
    3770:	e3a03003 	mov	r3, #3
    3774:	e5863000 	str	r3, [r6]
    3778:	e3a01002 	mov	r1, #2
    377c:	e3a02001 	mov	r2, #1
    3780:	e3a03000 	mov	r3, #0
    3784:	e5871000 	str	r1, [r7]
    3788:	e5882000 	str	r2, [r8]
    378c:	e5893000 	str	r3, [r9]
    3790:	eaffff2c 	b	3448 <piBoardId+0x1e0>
    3794:	e59f1214 	ldr	r1, [pc, #532]	; 39b0 <piBoardId+0x748>
    3798:	e1a00004 	mov	r0, r4
    379c:	e08f1001 	add	r1, pc, r1
    37a0:	ebfffb68 	bl	2548 <strcmp@plt>
    37a4:	e3500000 	cmp	r0, #0
    37a8:	0a00002c 	beq	3860 <piBoardId+0x5f8>
    37ac:	e59f1200 	ldr	r1, [pc, #512]	; 39b4 <piBoardId+0x74c>
    37b0:	e1a00004 	mov	r0, r4
    37b4:	e08f1001 	add	r1, pc, r1
    37b8:	ebfffb62 	bl	2548 <strcmp@plt>
    37bc:	e3500000 	cmp	r0, #0
    37c0:	1a000013 	bne	3814 <piBoardId+0x5ac>
    37c4:	e3a02006 	mov	r2, #6
    37c8:	e5862000 	str	r2, [r6]
    37cc:	e3a03001 	mov	r3, #1
    37d0:	e3a02002 	mov	r2, #2
    37d4:	e5873000 	str	r3, [r7]
    37d8:	e5883000 	str	r3, [r8]
    37dc:	e5892000 	str	r2, [r9]
    37e0:	eaffff18 	b	3448 <piBoardId+0x1e0>
    37e4:	e59f01cc 	ldr	r0, [pc, #460]	; 39b8 <piBoardId+0x750>
    37e8:	e08f0000 	add	r0, pc, r0
    37ec:	ebfffd2e 	bl	2cac <piGpioLayoutOops>
    37f0:	e59f01c4 	ldr	r0, [pc, #452]	; 39bc <piBoardId+0x754>
    37f4:	e08f0000 	add	r0, pc, r0
    37f8:	ebfffd2b 	bl	2cac <piGpioLayoutOops>
    37fc:	e59f01bc 	ldr	r0, [pc, #444]	; 39c0 <piBoardId+0x758>
    3800:	e08f0000 	add	r0, pc, r0
    3804:	ebfffd28 	bl	2cac <piGpioLayoutOops>
    3808:	e59f01b4 	ldr	r0, [pc, #436]	; 39c4 <piBoardId+0x75c>
    380c:	e08f0000 	add	r0, pc, r0
    3810:	ebfffd25 	bl	2cac <piGpioLayoutOops>
    3814:	e59f11ac 	ldr	r1, [pc, #428]	; 39c8 <piBoardId+0x760>
    3818:	e1a00004 	mov	r0, r4
    381c:	e08f1001 	add	r1, pc, r1
    3820:	ebfffb48 	bl	2548 <strcmp@plt>
    3824:	e3500000 	cmp	r0, #0
    3828:	0a00000c 	beq	3860 <piBoardId+0x5f8>
    382c:	e59f1198 	ldr	r1, [pc, #408]	; 39cc <piBoardId+0x764>
    3830:	e1a00004 	mov	r0, r4
    3834:	e08f1001 	add	r1, pc, r1
    3838:	ebfffb42 	bl	2548 <strcmp@plt>
    383c:	e3500000 	cmp	r0, #0
    3840:	1a00000e 	bne	3880 <piBoardId+0x618>
    3844:	e3a03001 	mov	r3, #1
    3848:	e3a02006 	mov	r2, #6
    384c:	e5862000 	str	r2, [r6]
    3850:	e5873000 	str	r3, [r7]
    3854:	e5883000 	str	r3, [r8]
    3858:	e5893000 	str	r3, [r9]
    385c:	eafffef9 	b	3448 <piBoardId+0x1e0>
    3860:	e3a02006 	mov	r2, #6
    3864:	e5862000 	str	r2, [r6]
    3868:	e3a03001 	mov	r3, #1
    386c:	e3a02000 	mov	r2, #0
    3870:	e5873000 	str	r3, [r7]
    3874:	e5883000 	str	r3, [r8]
    3878:	e5892000 	str	r2, [r9]
    387c:	eafffef1 	b	3448 <piBoardId+0x1e0>
    3880:	e59f1148 	ldr	r1, [pc, #328]	; 39d0 <piBoardId+0x768>
    3884:	e1a00004 	mov	r0, r4
    3888:	e08f1001 	add	r1, pc, r1
    388c:	ebfffb2d 	bl	2548 <strcmp@plt>
    3890:	e3500000 	cmp	r0, #0
    3894:	0a00000c 	beq	38cc <piBoardId+0x664>
    3898:	e59f1134 	ldr	r1, [pc, #308]	; 39d4 <piBoardId+0x76c>
    389c:	e1a00004 	mov	r0, r4
    38a0:	e08f1001 	add	r1, pc, r1
    38a4:	ebfffb27 	bl	2548 <strcmp@plt>
    38a8:	e3500000 	cmp	r0, #0
    38ac:	1a00000e 	bne	38ec <piBoardId+0x684>
    38b0:	e3a03002 	mov	r3, #2
    38b4:	e3a02001 	mov	r2, #1
    38b8:	e5863000 	str	r3, [r6]
    38bc:	e5872000 	str	r2, [r7]
    38c0:	e5882000 	str	r2, [r8]
    38c4:	e5893000 	str	r3, [r9]
    38c8:	eafffede 	b	3448 <piBoardId+0x1e0>
    38cc:	e3a03002 	mov	r3, #2
    38d0:	e5863000 	str	r3, [r6]
    38d4:	e3a02001 	mov	r2, #1
    38d8:	e3a03000 	mov	r3, #0
    38dc:	e5872000 	str	r2, [r7]
    38e0:	e5883000 	str	r3, [r8]
    38e4:	e5893000 	str	r3, [r9]
    38e8:	eafffed6 	b	3448 <piBoardId+0x1e0>
    38ec:	e59f10e4 	ldr	r1, [pc, #228]	; 39d8 <piBoardId+0x770>
    38f0:	e1a00004 	mov	r0, r4
    38f4:	e08f1001 	add	r1, pc, r1
    38f8:	ebfffb12 	bl	2548 <strcmp@plt>
    38fc:	e3500000 	cmp	r0, #0
    3900:	0afffff1 	beq	38cc <piBoardId+0x664>
    3904:	e59f10d0 	ldr	r1, [pc, #208]	; 39dc <piBoardId+0x774>
    3908:	e1a00004 	mov	r0, r4
    390c:	e08f1001 	add	r1, pc, r1
    3910:	ebfffb0c 	bl	2548 <strcmp@plt>
    3914:	e3500000 	cmp	r0, #0
    3918:	13a03000 	movne	r3, #0
    391c:	03a03001 	moveq	r3, #1
    3920:	03a02002 	moveq	r2, #2
    3924:	05862000 	streq	r2, [r6]
    3928:	15863000 	strne	r3, [r6]
    392c:	05873000 	streq	r3, [r7]
    3930:	15873000 	strne	r3, [r7]
    3934:	05880000 	streq	r0, [r8]
    3938:	15883000 	strne	r3, [r8]
    393c:	e5893000 	str	r3, [r9]
    3940:	eafffec0 	b	3448 <piBoardId+0x1e0>
    3944:	000078e0 	.word	0x000078e0
    3948:	000078e0 	.word	0x000078e0
    394c:	00018d5c 	.word	0x00018d5c
    3950:	0000792c 	.word	0x0000792c
    3954:	000078e4 	.word	0x000078e4
    3958:	00000248 	.word	0x00000248
    395c:	00007880 	.word	0x00007880
    3960:	00007894 	.word	0x00007894
    3964:	00007834 	.word	0x00007834
    3968:	000077c8 	.word	0x000077c8
    396c:	00007920 	.word	0x00007920
    3970:	000077d8 	.word	0x000077d8
    3974:	00007834 	.word	0x00007834
    3978:	000078b0 	.word	0x000078b0
    397c:	000078a0 	.word	0x000078a0
    3980:	00007890 	.word	0x00007890
    3984:	00007880 	.word	0x00007880
    3988:	00007818 	.word	0x00007818
    398c:	00007808 	.word	0x00007808
    3990:	000077f8 	.word	0x000077f8
    3994:	000077b0 	.word	0x000077b0
    3998:	000077a0 	.word	0x000077a0
    399c:	00007790 	.word	0x00007790
    39a0:	00007514 	.word	0x00007514
    39a4:	000076d8 	.word	0x000076d8
    39a8:	00007748 	.word	0x00007748
    39ac:	00007738 	.word	0x00007738
    39b0:	000076e4 	.word	0x000076e4
    39b4:	000076d4 	.word	0x000076d4
    39b8:	000074f4 	.word	0x000074f4
    39bc:	0000738c 	.word	0x0000738c
    39c0:	000075b8 	.word	0x000075b8
    39c4:	000073dc 	.word	0x000073dc
    39c8:	00007674 	.word	0x00007674
    39cc:	00007664 	.word	0x00007664
    39d0:	00007618 	.word	0x00007618
    39d4:	00007608 	.word	0x00007608
    39d8:	000075bc 	.word	0x000075bc
    39dc:	000075ac 	.word	0x000075ac

000039e0 <wpiPinToGpio>:
    39e0:	e59f3010 	ldr	r3, [pc, #16]	; 39f8 <wpiPinToGpio+0x18>
    39e4:	e200003f 	and	r0, r0, #63	; 0x3f
    39e8:	e08f3003 	add	r3, pc, r3
    39ec:	e5933010 	ldr	r3, [r3, #16]
    39f0:	e7930100 	ldr	r0, [r3, r0, lsl #2]
    39f4:	e12fff1e 	bx	lr
    39f8:	00018f40 	.word	0x00018f40

000039fc <physPinToGpio>:
    39fc:	e59f3010 	ldr	r3, [pc, #16]	; 3a14 <physPinToGpio+0x18>
    3a00:	e200003f 	and	r0, r0, #63	; 0x3f
    3a04:	e08f3003 	add	r3, pc, r3
    3a08:	e5933014 	ldr	r3, [r3, #20]
    3a0c:	e7930100 	ldr	r0, [r3, r0, lsl #2]
    3a10:	e12fff1e 	bx	lr
    3a14:	00018f24 	.word	0x00018f24

00003a18 <setPadDrive>:
    3a18:	e59f3084 	ldr	r3, [pc, #132]	; 3aa4 <setPadDrive+0x8c>
    3a1c:	e59fc084 	ldr	ip, [pc, #132]	; 3aa8 <setPadDrive+0x90>
    3a20:	e08f3003 	add	r3, pc, r3
    3a24:	e08fc00c 	add	ip, pc, ip
    3a28:	e5933004 	ldr	r3, [r3, #4]
    3a2c:	e3530003 	cmp	r3, #3
    3a30:	13530001 	cmpne	r3, #1
    3a34:	812fff1e 	bxhi	lr
    3a38:	e3500002 	cmp	r0, #2
    3a3c:	812fff1e 	bxhi	lr
    3a40:	e92d4070 	push	{r4, r5, r6, lr}
    3a44:	e2013007 	and	r3, r1, #7
    3a48:	e59f405c 	ldr	r4, [pc, #92]	; 3aac <setPadDrive+0x94>
    3a4c:	e59f205c 	ldr	r2, [pc, #92]	; 3ab0 <setPadDrive+0x98>
    3a50:	e08f4004 	add	r4, pc, r4
    3a54:	e383345a 	orr	r3, r3, #1509949440	; 0x5a000000
    3a58:	e594e018 	ldr	lr, [r4, #24]
    3a5c:	e280500b 	add	r5, r0, #11
    3a60:	e3833018 	orr	r3, r3, #24
    3a64:	e78e3105 	str	r3, [lr, r5, lsl #2]
    3a68:	e79c2002 	ldr	r2, [ip, r2]
    3a6c:	e5922000 	ldr	r2, [r2]
    3a70:	e3520000 	cmp	r2, #0
    3a74:	08bd8070 	popeq	{r4, r5, r6, pc}
    3a78:	e1a02001 	mov	r2, r1
    3a7c:	e1a01000 	mov	r1, r0
    3a80:	e59f002c 	ldr	r0, [pc, #44]	; 3ab4 <setPadDrive+0x9c>
    3a84:	e08f0000 	add	r0, pc, r0
    3a88:	ebfffac0 	bl	2590 <printf@plt>
    3a8c:	e5943018 	ldr	r3, [r4, #24]
    3a90:	e59f0020 	ldr	r0, [pc, #32]	; 3ab8 <setPadDrive+0xa0>
    3a94:	e7931105 	ldr	r1, [r3, r5, lsl #2]
    3a98:	e08f0000 	add	r0, pc, r0
    3a9c:	e8bd4070 	pop	{r4, r5, r6, lr}
    3aa0:	eafffaba 	b	2590 <printf@plt>
    3aa4:	00018858 	.word	0x00018858
    3aa8:	000185d4 	.word	0x000185d4
    3aac:	00018ed8 	.word	0x00018ed8
    3ab0:	00000248 	.word	0x00000248
    3ab4:	0000743c 	.word	0x0000743c
    3ab8:	00007454 	.word	0x00007454

00003abc <getAlt>:
    3abc:	e59f3078 	ldr	r3, [pc, #120]	; 3b3c <getAlt+0x80>
    3ac0:	e200003f 	and	r0, r0, #63	; 0x3f
    3ac4:	e08f3003 	add	r3, pc, r3
    3ac8:	e5933004 	ldr	r3, [r3, #4]
    3acc:	e3530000 	cmp	r3, #0
    3ad0:	1a00000e 	bne	3b10 <getAlt+0x54>
    3ad4:	e59f3064 	ldr	r3, [pc, #100]	; 3b40 <getAlt+0x84>
    3ad8:	e08f3003 	add	r3, pc, r3
    3adc:	e5933010 	ldr	r3, [r3, #16]
    3ae0:	e7930100 	ldr	r0, [r3, r0, lsl #2]
    3ae4:	e59f3058 	ldr	r3, [pc, #88]	; 3b44 <getAlt+0x88>
    3ae8:	e59f2058 	ldr	r2, [pc, #88]	; 3b48 <getAlt+0x8c>
    3aec:	e08f3003 	add	r3, pc, r3
    3af0:	e08f2002 	add	r2, pc, r2
    3af4:	e7f31000 	ldrb	r1, [r3, r0]!
    3af8:	e592201c 	ldr	r2, [r2, #28]
    3afc:	e5d3303c 	ldrb	r3, [r3, #60]	; 0x3c
    3b00:	e7920101 	ldr	r0, [r2, r1, lsl #2]
    3b04:	e1a00330 	lsr	r0, r0, r3
    3b08:	e2000007 	and	r0, r0, #7
    3b0c:	e12fff1e 	bx	lr
    3b10:	e3530003 	cmp	r3, #3
    3b14:	0a000003 	beq	3b28 <getAlt+0x6c>
    3b18:	e3530001 	cmp	r3, #1
    3b1c:	0afffff0 	beq	3ae4 <getAlt+0x28>
    3b20:	e3a00000 	mov	r0, #0
    3b24:	e12fff1e 	bx	lr
    3b28:	e59f301c 	ldr	r3, [pc, #28]	; 3b4c <getAlt+0x90>
    3b2c:	e08f3003 	add	r3, pc, r3
    3b30:	e5933014 	ldr	r3, [r3, #20]
    3b34:	e7930100 	ldr	r0, [r3, r0, lsl #2]
    3b38:	eaffffe9 	b	3ae4 <getAlt+0x28>
    3b3c:	000187b4 	.word	0x000187b4
    3b40:	00018e50 	.word	0x00018e50
    3b44:	00006c6c 	.word	0x00006c6c
    3b48:	00018e38 	.word	0x00018e38
    3b4c:	00018dfc 	.word	0x00018dfc

00003b50 <pwmSetMode>:
    3b50:	e59f3030 	ldr	r3, [pc, #48]	; 3b88 <pwmSetMode+0x38>
    3b54:	e08f3003 	add	r3, pc, r3
    3b58:	e5933004 	ldr	r3, [r3, #4]
    3b5c:	e3530003 	cmp	r3, #3
    3b60:	13530001 	cmpne	r3, #1
    3b64:	812fff1e 	bxhi	lr
    3b68:	e59f301c 	ldr	r3, [pc, #28]	; 3b8c <pwmSetMode+0x3c>
    3b6c:	e3500000 	cmp	r0, #0
    3b70:	e08f3003 	add	r3, pc, r3
    3b74:	059f2014 	ldreq	r2, [pc, #20]	; 3b90 <pwmSetMode+0x40>
    3b78:	e5933020 	ldr	r3, [r3, #32]
    3b7c:	159f2010 	ldrne	r2, [pc, #16]	; 3b94 <pwmSetMode+0x44>
    3b80:	e5832000 	str	r2, [r3]
    3b84:	e12fff1e 	bx	lr
    3b88:	00018724 	.word	0x00018724
    3b8c:	00018db8 	.word	0x00018db8
    3b90:	00008181 	.word	0x00008181
    3b94:	00000101 	.word	0x00000101

00003b98 <gpioClockSet>:
    3b98:	e59f3100 	ldr	r3, [pc, #256]	; 3ca0 <gpioClockSet+0x108>
    3b9c:	e92d4070 	push	{r4, r5, r6, lr}
    3ba0:	e08f3003 	add	r3, pc, r3
    3ba4:	e200403f 	and	r4, r0, #63	; 0x3f
    3ba8:	e5933004 	ldr	r3, [r3, #4]
    3bac:	e3530000 	cmp	r3, #0
    3bb0:	1a00002c 	bne	3c68 <gpioClockSet+0xd0>
    3bb4:	e59f30e8 	ldr	r3, [pc, #232]	; 3ca4 <gpioClockSet+0x10c>
    3bb8:	e08f3003 	add	r3, pc, r3
    3bbc:	e5933010 	ldr	r3, [r3, #16]
    3bc0:	e7934104 	ldr	r4, [r3, r4, lsl #2]
    3bc4:	e59f00dc 	ldr	r0, [pc, #220]	; 3ca8 <gpioClockSet+0x110>
    3bc8:	e1a05001 	mov	r5, r1
    3bcc:	eb001a4d 	bl	a508 <__divsi3>
    3bd0:	e1a01005 	mov	r1, r5
    3bd4:	e1a06000 	mov	r6, r0
    3bd8:	e59f00c8 	ldr	r0, [pc, #200]	; 3ca8 <gpioClockSet+0x110>
    3bdc:	eb001ad1 	bl	a728 <__aeabi_idivmod>
    3be0:	ed9f7b2a 	vldr	d7, [pc, #168]	; 3c90 <gpioClockSet+0xf8>
    3be4:	ed9f5b2b 	vldr	d5, [pc, #172]	; 3c98 <gpioClockSet+0x100>
    3be8:	e59f00bc 	ldr	r0, [pc, #188]	; 3cac <gpioClockSet+0x114>
    3bec:	e59f20bc 	ldr	r2, [pc, #188]	; 3cb0 <gpioClockSet+0x118>
    3bf0:	e08f0000 	add	r0, pc, r0
    3bf4:	e0800004 	add	r0, r0, r4
    3bf8:	e08f2002 	add	r2, pc, r2
    3bfc:	e5d00078 	ldrb	r0, [r0, #120]	; 0x78
    3c00:	e59f30ac 	ldr	r3, [pc, #172]	; 3cb4 <gpioClockSet+0x11c>
    3c04:	e592c024 	ldr	ip, [r2, #36]	; 0x24
    3c08:	e1560003 	cmp	r6, r3
    3c0c:	e59fe0a4 	ldr	lr, [pc, #164]	; 3cb8 <gpioClockSet+0x120>
    3c10:	a1a06003 	movge	r6, r3
    3c14:	e08c2100 	add	r2, ip, r0, lsl #2
    3c18:	e78ce100 	str	lr, [ip, r0, lsl #2]
    3c1c:	ee061a90 	vmov	s13, r1
    3c20:	eeb86be6 	vcvt.f64.s32	d6, s13
    3c24:	ee266b07 	vmul.f64	d6, d6, d7
    3c28:	ee867b05 	vdiv.f64	d7, d6, d5
    3c2c:	eebd7bc7 	vcvt.s32.f64	s14, d7
    3c30:	e5923000 	ldr	r3, [r2]
    3c34:	e3130080 	tst	r3, #128	; 0x80
    3c38:	1afffffc 	bne	3c30 <gpioClockSet+0x98>
    3c3c:	e59f2078 	ldr	r2, [pc, #120]	; 3cbc <gpioClockSet+0x124>
    3c40:	ee173a10 	vmov	r3, s14
    3c44:	e08f2002 	add	r2, pc, r2
    3c48:	e0822004 	add	r2, r2, r4
    3c4c:	e59f106c 	ldr	r1, [pc, #108]	; 3cc0 <gpioClockSet+0x128>
    3c50:	e5d220b8 	ldrb	r2, [r2, #184]	; 0xb8
    3c54:	e1833606 	orr	r3, r3, r6, lsl #12
    3c58:	e383345a 	orr	r3, r3, #1509949440	; 0x5a000000
    3c5c:	e78c3102 	str	r3, [ip, r2, lsl #2]
    3c60:	e78c1100 	str	r1, [ip, r0, lsl #2]
    3c64:	e8bd8070 	pop	{r4, r5, r6, pc}
    3c68:	e3530003 	cmp	r3, #3
    3c6c:	0a000002 	beq	3c7c <gpioClockSet+0xe4>
    3c70:	e3530001 	cmp	r3, #1
    3c74:	18bd8070 	popne	{r4, r5, r6, pc}
    3c78:	eaffffd1 	b	3bc4 <gpioClockSet+0x2c>
    3c7c:	e59f3040 	ldr	r3, [pc, #64]	; 3cc4 <gpioClockSet+0x12c>
    3c80:	e08f3003 	add	r3, pc, r3
    3c84:	e5933014 	ldr	r3, [r3, #20]
    3c88:	e7934104 	ldr	r4, [r3, r4, lsl #2]
    3c8c:	eaffffcc 	b	3bc4 <gpioClockSet+0x2c>
    3c90:	00000000 	.word	0x00000000
    3c94:	40b00000 	.word	0x40b00000
    3c98:	00000000 	.word	0x00000000
    3c9c:	41724f80 	.word	0x41724f80
    3ca0:	000186d8 	.word	0x000186d8
    3ca4:	00018d70 	.word	0x00018d70
    3ca8:	0124f800 	.word	0x0124f800
    3cac:	00006b68 	.word	0x00006b68
    3cb0:	00018d30 	.word	0x00018d30
    3cb4:	00000fff 	.word	0x00000fff
    3cb8:	5a000001 	.word	0x5a000001
    3cbc:	00006b14 	.word	0x00006b14
    3cc0:	5a000011 	.word	0x5a000011
    3cc4:	00018ca8 	.word	0x00018ca8

00003cc8 <wiringPiFindNode>:
    3cc8:	e59f3040 	ldr	r3, [pc, #64]	; 3d10 <wiringPiFindNode+0x48>
    3ccc:	e59f2040 	ldr	r2, [pc, #64]	; 3d14 <wiringPiFindNode+0x4c>
    3cd0:	e08f3003 	add	r3, pc, r3
    3cd4:	e7933002 	ldr	r3, [r3, r2]
    3cd8:	e5933000 	ldr	r3, [r3]
    3cdc:	e3530000 	cmp	r3, #0
    3ce0:	0a000008 	beq	3d08 <wiringPiFindNode+0x40>
    3ce4:	e5932000 	ldr	r2, [r3]
    3ce8:	e1520000 	cmp	r2, r0
    3cec:	ca000002 	bgt	3cfc <wiringPiFindNode+0x34>
    3cf0:	e5932004 	ldr	r2, [r3, #4]
    3cf4:	e1520000 	cmp	r2, r0
    3cf8:	aa000002 	bge	3d08 <wiringPiFindNode+0x40>
    3cfc:	e5933038 	ldr	r3, [r3, #56]	; 0x38
    3d00:	e3530000 	cmp	r3, #0
    3d04:	1afffff6 	bne	3ce4 <wiringPiFindNode+0x1c>
    3d08:	e1a00003 	mov	r0, r3
    3d0c:	e12fff1e 	bx	lr
    3d10:	00018328 	.word	0x00018328
    3d14:	00000258 	.word	0x00000258

00003d18 <wiringPiNewNode>:
    3d18:	e92d41f0 	push	{r4, r5, r6, r7, r8, lr}
    3d1c:	e350003f 	cmp	r0, #63	; 0x3f
    3d20:	e59f8118 	ldr	r8, [pc, #280]	; 3e40 <wiringPiNewNode+0x128>
    3d24:	e1a07000 	mov	r7, r0
    3d28:	e1a05001 	mov	r5, r1
    3d2c:	e08f8008 	add	r8, pc, r8
    3d30:	da000033 	ble	3e04 <wiringPiNewNode+0xec>
    3d34:	e0875005 	add	r5, r7, r5
    3d38:	e1570005 	cmp	r7, r5
    3d3c:	aa00000d 	bge	3d78 <wiringPiNewNode+0x60>
    3d40:	e59f60fc 	ldr	r6, [pc, #252]	; 3e44 <wiringPiNewNode+0x12c>
    3d44:	e1a04007 	mov	r4, r7
    3d48:	e08f6006 	add	r6, pc, r6
    3d4c:	e1a00004 	mov	r0, r4
    3d50:	ebfffa95 	bl	27ac <wiringPiFindNode@plt>
    3d54:	e1a02004 	mov	r2, r4
    3d58:	e1a01006 	mov	r1, r6
    3d5c:	e2844001 	add	r4, r4, #1
    3d60:	e3500000 	cmp	r0, #0
    3d64:	e3a00001 	mov	r0, #1
    3d68:	0a000000 	beq	3d70 <wiringPiNewNode+0x58>
    3d6c:	ebfffab5 	bl	2848 <wiringPiFailure@plt>
    3d70:	e1540005 	cmp	r4, r5
    3d74:	1afffff4 	bne	3d4c <wiringPiNewNode+0x34>
    3d78:	e3a01001 	mov	r1, #1
    3d7c:	e3a0003c 	mov	r0, #60	; 0x3c
    3d80:	ebfff9db 	bl	24f4 <calloc@plt>
    3d84:	e2504000 	subs	r4, r0, #0
    3d88:	0a000023 	beq	3e1c <wiringPiNewNode+0x104>
    3d8c:	e59f20b4 	ldr	r2, [pc, #180]	; 3e48 <wiringPiNewNode+0x130>
    3d90:	e59f00b4 	ldr	r0, [pc, #180]	; 3e4c <wiringPiNewNode+0x134>
    3d94:	e08f2002 	add	r2, pc, r2
    3d98:	e59f10b0 	ldr	r1, [pc, #176]	; 3e50 <wiringPiNewNode+0x138>
    3d9c:	e584201c 	str	r2, [r4, #28]
    3da0:	e59f20ac 	ldr	r2, [pc, #172]	; 3e54 <wiringPiNewNode+0x13c>
    3da4:	e08f0000 	add	r0, pc, r0
    3da8:	e08f1001 	add	r1, pc, r1
    3dac:	e5840020 	str	r0, [r4, #32]
    3db0:	e5841024 	str	r1, [r4, #36]	; 0x24
    3db4:	e08f2002 	add	r2, pc, r2
    3db8:	e59f0098 	ldr	r0, [pc, #152]	; 3e58 <wiringPiNewNode+0x140>
    3dbc:	e59f1098 	ldr	r1, [pc, #152]	; 3e5c <wiringPiNewNode+0x144>
    3dc0:	e5842028 	str	r2, [r4, #40]	; 0x28
    3dc4:	e59f3094 	ldr	r3, [pc, #148]	; 3e60 <wiringPiNewNode+0x148>
    3dc8:	e59f2094 	ldr	r2, [pc, #148]	; 3e64 <wiringPiNewNode+0x14c>
    3dcc:	e08f0000 	add	r0, pc, r0
    3dd0:	e08f1001 	add	r1, pc, r1
    3dd4:	e2455001 	sub	r5, r5, #1
    3dd8:	e08f2002 	add	r2, pc, r2
    3ddc:	e1c402fc 	strd	r0, [r4, #44]	; 0x2c
    3de0:	e5842034 	str	r2, [r4, #52]	; 0x34
    3de4:	e5845004 	str	r5, [r4, #4]
    3de8:	e5847000 	str	r7, [r4]
    3dec:	e7983003 	ldr	r3, [r8, r3]
    3df0:	e1a00004 	mov	r0, r4
    3df4:	e5932000 	ldr	r2, [r3]
    3df8:	e5834000 	str	r4, [r3]
    3dfc:	e5842038 	str	r2, [r4, #56]	; 0x38
    3e00:	e8bd81f0 	pop	{r4, r5, r6, r7, r8, pc}
    3e04:	e59f105c 	ldr	r1, [pc, #92]	; 3e68 <wiringPiNewNode+0x150>
    3e08:	e1a02000 	mov	r2, r0
    3e0c:	e08f1001 	add	r1, pc, r1
    3e10:	e3a00001 	mov	r0, #1
    3e14:	ebfffa8b 	bl	2848 <wiringPiFailure@plt>
    3e18:	eaffffc5 	b	3d34 <wiringPiNewNode+0x1c>
    3e1c:	ebfffab3 	bl	28f0 <__errno_location@plt>
    3e20:	e5900000 	ldr	r0, [r0]
    3e24:	ebfffa84 	bl	283c <strerror@plt>
    3e28:	e59f103c 	ldr	r1, [pc, #60]	; 3e6c <wiringPiNewNode+0x154>
    3e2c:	e08f1001 	add	r1, pc, r1
    3e30:	e1a02000 	mov	r2, r0
    3e34:	e3a00001 	mov	r0, #1
    3e38:	ebfffa82 	bl	2848 <wiringPiFailure@plt>
    3e3c:	eaffffd2 	b	3d8c <wiringPiNewNode+0x74>
    3e40:	000182cc 	.word	0x000182cc
    3e44:	000071dc 	.word	0x000071dc
    3e48:	ffffef04 	.word	0xffffef04
    3e4c:	fffff070 	.word	0xfffff070
    3e50:	ffffeef4 	.word	0xffffeef4
    3e54:	fffff064 	.word	0xfffff064
    3e58:	fffff040 	.word	0xfffff040
    3e5c:	fffff04c 	.word	0xfffff04c
    3e60:	00000258 	.word	0x00000258
    3e64:	fffff038 	.word	0xfffff038
    3e68:	000070f0 	.word	0x000070f0
    3e6c:	00007134 	.word	0x00007134

00003e70 <pinModeAlt>:
    3e70:	e59f209c 	ldr	r2, [pc, #156]	; 3f14 <pinModeAlt+0xa4>
    3e74:	e92d4010 	push	{r4, lr}
    3e78:	e08f2002 	add	r2, pc, r2
    3e7c:	e5923028 	ldr	r3, [r2, #40]	; 0x28
    3e80:	e3530000 	cmp	r3, #0
    3e84:	0a00001f 	beq	3f08 <pinModeAlt+0x98>
    3e88:	e3d0303f 	bics	r3, r0, #63	; 0x3f
    3e8c:	18bd8010 	popne	{r4, pc}
    3e90:	e59f3080 	ldr	r3, [pc, #128]	; 3f18 <pinModeAlt+0xa8>
    3e94:	e08f3003 	add	r3, pc, r3
    3e98:	e5933004 	ldr	r3, [r3, #4]
    3e9c:	e3530000 	cmp	r3, #0
    3ea0:	1a000010 	bne	3ee8 <pinModeAlt+0x78>
    3ea4:	e5923010 	ldr	r3, [r2, #16]
    3ea8:	e7930100 	ldr	r0, [r3, r0, lsl #2]
    3eac:	e59f3068 	ldr	r3, [pc, #104]	; 3f1c <pinModeAlt+0xac>
    3eb0:	e59f2068 	ldr	r2, [pc, #104]	; 3f20 <pinModeAlt+0xb0>
    3eb4:	e08f3003 	add	r3, pc, r3
    3eb8:	e08f2002 	add	r2, pc, r2
    3ebc:	e083c000 	add	ip, r3, r0
    3ec0:	e7d30000 	ldrb	r0, [r3, r0]
    3ec4:	e592201c 	ldr	r2, [r2, #28]
    3ec8:	e5dcc03c 	ldrb	ip, [ip, #60]	; 0x3c
    3ecc:	e3a0e007 	mov	lr, #7
    3ed0:	e7923100 	ldr	r3, [r2, r0, lsl #2]
    3ed4:	e001100e 	and	r1, r1, lr
    3ed8:	e1c33c1e 	bic	r3, r3, lr, lsl ip
    3edc:	e1833c11 	orr	r3, r3, r1, lsl ip
    3ee0:	e7823100 	str	r3, [r2, r0, lsl #2]
    3ee4:	e8bd8010 	pop	{r4, pc}
    3ee8:	e3530003 	cmp	r3, #3
    3eec:	0a000002 	beq	3efc <pinModeAlt+0x8c>
    3ef0:	e3530001 	cmp	r3, #1
    3ef4:	18bd8010 	popne	{r4, pc}
    3ef8:	eaffffeb 	b	3eac <pinModeAlt+0x3c>
    3efc:	e5923014 	ldr	r3, [r2, #20]
    3f00:	e7930100 	ldr	r0, [r3, r0, lsl #2]
    3f04:	eaffffe8 	b	3eac <pinModeAlt+0x3c>
    3f08:	e59f0014 	ldr	r0, [pc, #20]	; 3f24 <pinModeAlt+0xb4>
    3f0c:	e08f0000 	add	r0, pc, r0
    3f10:	ebfffba1 	bl	2d9c <setupCheck.part.0>
    3f14:	00018ab0 	.word	0x00018ab0
    3f18:	000183e4 	.word	0x000183e4
    3f1c:	000068a4 	.word	0x000068a4
    3f20:	00018a70 	.word	0x00018a70
    3f24:	00007084 	.word	0x00007084

00003f28 <digitalRead>:
    3f28:	e3d0203f 	bics	r2, r0, #63	; 0x3f
    3f2c:	e92d4010 	push	{r4, lr}
    3f30:	e1a04000 	mov	r4, r0
    3f34:	e24dd008 	sub	sp, sp, #8
    3f38:	1a000020 	bne	3fc0 <digitalRead+0x98>
    3f3c:	e59f10f4 	ldr	r1, [pc, #244]	; 4038 <digitalRead+0x110>
    3f40:	e08f1001 	add	r1, pc, r1
    3f44:	e5913004 	ldr	r3, [r1, #4]
    3f48:	e3530002 	cmp	r3, #2
    3f4c:	0a000014 	beq	3fa4 <digitalRead+0x7c>
    3f50:	e3530000 	cmp	r3, #0
    3f54:	1a000021 	bne	3fe0 <digitalRead+0xb8>
    3f58:	e59f30dc 	ldr	r3, [pc, #220]	; 403c <digitalRead+0x114>
    3f5c:	e08f3003 	add	r3, pc, r3
    3f60:	e5933010 	ldr	r3, [r3, #16]
    3f64:	e7934100 	ldr	r4, [r3, r0, lsl #2]
    3f68:	e59f30d0 	ldr	r3, [pc, #208]	; 4040 <digitalRead+0x118>
    3f6c:	e59f20d0 	ldr	r2, [pc, #208]	; 4044 <digitalRead+0x11c>
    3f70:	e08f3003 	add	r3, pc, r3
    3f74:	e0833004 	add	r3, r3, r4
    3f78:	e08f2002 	add	r2, pc, r2
    3f7c:	e5d310f8 	ldrb	r1, [r3, #248]	; 0xf8
    3f80:	e592301c 	ldr	r3, [r2, #28]
    3f84:	e204401f 	and	r4, r4, #31
    3f88:	e3a02001 	mov	r2, #1
    3f8c:	e7933101 	ldr	r3, [r3, r1, lsl #2]
    3f90:	e0133412 	ands	r3, r3, r2, lsl r4
    3f94:	11a00002 	movne	r0, r2
    3f98:	03a00000 	moveq	r0, #0
    3f9c:	e28dd008 	add	sp, sp, #8
    3fa0:	e8bd8010 	pop	{r4, pc}
    3fa4:	e0811100 	add	r1, r1, r0, lsl #2
    3fa8:	e5914008 	ldr	r4, [r1, #8]
    3fac:	e3740001 	cmn	r4, #1
    3fb0:	1a00000f 	bne	3ff4 <digitalRead+0xcc>
    3fb4:	e3a00000 	mov	r0, #0
    3fb8:	e28dd008 	add	sp, sp, #8
    3fbc:	e8bd8010 	pop	{r4, pc}
    3fc0:	ebfff9f9 	bl	27ac <wiringPiFindNode@plt>
    3fc4:	e2503000 	subs	r3, r0, #0
    3fc8:	0afffff9 	beq	3fb4 <digitalRead+0x8c>
    3fcc:	e5933024 	ldr	r3, [r3, #36]	; 0x24
    3fd0:	e1a01004 	mov	r1, r4
    3fd4:	e12fff33 	blx	r3
    3fd8:	e28dd008 	add	sp, sp, #8
    3fdc:	e8bd8010 	pop	{r4, pc}
    3fe0:	e3530003 	cmp	r3, #3
    3fe4:	0a00000e 	beq	4024 <digitalRead+0xfc>
    3fe8:	e3530001 	cmp	r3, #1
    3fec:	1afffff0 	bne	3fb4 <digitalRead+0x8c>
    3ff0:	eaffffdc 	b	3f68 <digitalRead+0x40>
    3ff4:	e1a01002 	mov	r1, r2
    3ff8:	e1a00004 	mov	r0, r4
    3ffc:	ebfff9a5 	bl	2698 <lseek@plt>
    4000:	e1a00004 	mov	r0, r4
    4004:	e3a02001 	mov	r2, #1
    4008:	e28d1007 	add	r1, sp, #7
    400c:	ebfff968 	bl	25b4 <read@plt>
    4010:	e5dd0007 	ldrb	r0, [sp, #7]
    4014:	e2500030 	subs	r0, r0, #48	; 0x30
    4018:	13a00001 	movne	r0, #1
    401c:	e28dd008 	add	sp, sp, #8
    4020:	e8bd8010 	pop	{r4, pc}
    4024:	e59f301c 	ldr	r3, [pc, #28]	; 4048 <digitalRead+0x120>
    4028:	e08f3003 	add	r3, pc, r3
    402c:	e5933014 	ldr	r3, [r3, #20]
    4030:	e7934100 	ldr	r4, [r3, r0, lsl #2]
    4034:	eaffffcb 	b	3f68 <digitalRead+0x40>
    4038:	00018338 	.word	0x00018338
    403c:	000189cc 	.word	0x000189cc
    4040:	000067e8 	.word	0x000067e8
    4044:	000189b0 	.word	0x000189b0
    4048:	00018900 	.word	0x00018900

0000404c <digitalWrite>:
    404c:	e3d0303f 	bics	r3, r0, #63	; 0x3f
    4050:	e92d4070 	push	{r4, r5, r6, lr}
    4054:	e1a04000 	mov	r4, r0
    4058:	e1a05001 	mov	r5, r1
    405c:	1a00001d 	bne	40d8 <digitalWrite+0x8c>
    4060:	e59f20f8 	ldr	r2, [pc, #248]	; 4160 <digitalWrite+0x114>
    4064:	e08f2002 	add	r2, pc, r2
    4068:	e5923004 	ldr	r3, [r2, #4]
    406c:	e3530002 	cmp	r3, #2
    4070:	0a00002b 	beq	4124 <digitalWrite+0xd8>
    4074:	e3530000 	cmp	r3, #0
    4078:	1a000011 	bne	40c4 <digitalWrite+0x78>
    407c:	e59f30e0 	ldr	r3, [pc, #224]	; 4164 <digitalWrite+0x118>
    4080:	e08f3003 	add	r3, pc, r3
    4084:	e5933010 	ldr	r3, [r3, #16]
    4088:	e7934100 	ldr	r4, [r3, r0, lsl #2]
    408c:	e59f00d4 	ldr	r0, [pc, #212]	; 4168 <digitalWrite+0x11c>
    4090:	e204101f 	and	r1, r4, #31
    4094:	e08f0000 	add	r0, pc, r0
    4098:	e3a03001 	mov	r3, #1
    409c:	e3550000 	cmp	r5, #0
    40a0:	e590201c 	ldr	r2, [r0, #28]
    40a4:	e1a03113 	lsl	r3, r3, r1
    40a8:	1a000012 	bne	40f8 <digitalWrite+0xac>
    40ac:	e59f10b8 	ldr	r1, [pc, #184]	; 416c <digitalWrite+0x120>
    40b0:	e08f1001 	add	r1, pc, r1
    40b4:	e0814004 	add	r4, r1, r4
    40b8:	e5d41138 	ldrb	r1, [r4, #312]	; 0x138
    40bc:	e7823101 	str	r3, [r2, r1, lsl #2]
    40c0:	e8bd8070 	pop	{r4, r5, r6, pc}
    40c4:	e3530003 	cmp	r3, #3
    40c8:	0a000010 	beq	4110 <digitalWrite+0xc4>
    40cc:	e3530001 	cmp	r3, #1
    40d0:	18bd8070 	popne	{r4, r5, r6, pc}
    40d4:	eaffffec 	b	408c <digitalWrite+0x40>
    40d8:	ebfff9b3 	bl	27ac <wiringPiFindNode@plt>
    40dc:	e2503000 	subs	r3, r0, #0
    40e0:	08bd8070 	popeq	{r4, r5, r6, pc}
    40e4:	e1a02005 	mov	r2, r5
    40e8:	e1a01004 	mov	r1, r4
    40ec:	e5933028 	ldr	r3, [r3, #40]	; 0x28
    40f0:	e8bd4070 	pop	{r4, r5, r6, lr}
    40f4:	e12fff13 	bx	r3
    40f8:	e59f1070 	ldr	r1, [pc, #112]	; 4170 <digitalWrite+0x124>
    40fc:	e08f1001 	add	r1, pc, r1
    4100:	e0814004 	add	r4, r1, r4
    4104:	e5d41178 	ldrb	r1, [r4, #376]	; 0x178
    4108:	e7823101 	str	r3, [r2, r1, lsl #2]
    410c:	e8bd8070 	pop	{r4, r5, r6, pc}
    4110:	e59f305c 	ldr	r3, [pc, #92]	; 4174 <digitalWrite+0x128>
    4114:	e08f3003 	add	r3, pc, r3
    4118:	e5933014 	ldr	r3, [r3, #20]
    411c:	e7934100 	ldr	r4, [r3, r0, lsl #2]
    4120:	eaffffd9 	b	408c <digitalWrite+0x40>
    4124:	e0824100 	add	r4, r2, r0, lsl #2
    4128:	e5940008 	ldr	r0, [r4, #8]
    412c:	e3700001 	cmn	r0, #1
    4130:	08bd8070 	popeq	{r4, r5, r6, pc}
    4134:	e3510000 	cmp	r1, #0
    4138:	e1a02003 	mov	r2, r3
    413c:	1a000003 	bne	4150 <digitalWrite+0x104>
    4140:	e59f1030 	ldr	r1, [pc, #48]	; 4178 <digitalWrite+0x12c>
    4144:	e8bd4070 	pop	{r4, r5, r6, lr}
    4148:	e08f1001 	add	r1, pc, r1
    414c:	eafff9f9 	b	2938 <write@plt>
    4150:	e59f1024 	ldr	r1, [pc, #36]	; 417c <digitalWrite+0x130>
    4154:	e8bd4070 	pop	{r4, r5, r6, lr}
    4158:	e08f1001 	add	r1, pc, r1
    415c:	eafff9f5 	b	2938 <write@plt>
    4160:	00018214 	.word	0x00018214
    4164:	000188a8 	.word	0x000188a8
    4168:	00018894 	.word	0x00018894
    416c:	000066a8 	.word	0x000066a8
    4170:	0000665c 	.word	0x0000665c
    4174:	00018814 	.word	0x00018814
    4178:	00006e54 	.word	0x00006e54
    417c:	00006e48 	.word	0x00006e48

00004180 <pwmWrite>:
    4180:	e59f30c4 	ldr	r3, [pc, #196]	; 424c <pwmWrite+0xcc>
    4184:	e92d4070 	push	{r4, r5, r6, lr}
    4188:	e08f3003 	add	r3, pc, r3
    418c:	e593c028 	ldr	ip, [r3, #40]	; 0x28
    4190:	e35c0000 	cmp	ip, #0
    4194:	0a000026 	beq	4234 <pwmWrite+0xb4>
    4198:	e3d0203f 	bics	r2, r0, #63	; 0x3f
    419c:	e1a05001 	mov	r5, r1
    41a0:	e1a04000 	mov	r4, r0
    41a4:	1a000017 	bne	4208 <pwmWrite+0x88>
    41a8:	e59f20a0 	ldr	r2, [pc, #160]	; 4250 <pwmWrite+0xd0>
    41ac:	e08f2002 	add	r2, pc, r2
    41b0:	e5920004 	ldr	r0, [r2, #4]
    41b4:	e3500000 	cmp	r0, #0
    41b8:	1a00000d 	bne	41f4 <pwmWrite+0x74>
    41bc:	e5933010 	ldr	r3, [r3, #16]
    41c0:	e7934104 	ldr	r4, [r3, r4, lsl #2]
    41c4:	e59f2088 	ldr	r2, [pc, #136]	; 4254 <pwmWrite+0xd4>
    41c8:	e08f2002 	add	r2, pc, r2
    41cc:	e592302c 	ldr	r3, [r2, #44]	; 0x2c
    41d0:	e3530000 	cmp	r3, #0
    41d4:	1a000019 	bne	4240 <pwmWrite+0xc0>
    41d8:	e59f3078 	ldr	r3, [pc, #120]	; 4258 <pwmWrite+0xd8>
    41dc:	e5922020 	ldr	r2, [r2, #32]
    41e0:	e08f3003 	add	r3, pc, r3
    41e4:	e0834004 	add	r4, r3, r4
    41e8:	e5d431b8 	ldrb	r3, [r4, #440]	; 0x1b8
    41ec:	e7825103 	str	r5, [r2, r3, lsl #2]
    41f0:	e8bd8070 	pop	{r4, r5, r6, pc}
    41f4:	e3500003 	cmp	r0, #3
    41f8:	0a00000a 	beq	4228 <pwmWrite+0xa8>
    41fc:	e3500001 	cmp	r0, #1
    4200:	18bd8070 	popne	{r4, r5, r6, pc}
    4204:	eaffffee 	b	41c4 <pwmWrite+0x44>
    4208:	ebfff967 	bl	27ac <wiringPiFindNode@plt>
    420c:	e2503000 	subs	r3, r0, #0
    4210:	08bd8070 	popeq	{r4, r5, r6, pc}
    4214:	e1a02005 	mov	r2, r5
    4218:	e1a01004 	mov	r1, r4
    421c:	e593302c 	ldr	r3, [r3, #44]	; 0x2c
    4220:	e8bd4070 	pop	{r4, r5, r6, lr}
    4224:	e12fff13 	bx	r3
    4228:	e5933014 	ldr	r3, [r3, #20]
    422c:	e7934104 	ldr	r4, [r3, r4, lsl #2]
    4230:	eaffffe3 	b	41c4 <pwmWrite+0x44>
    4234:	e59f0020 	ldr	r0, [pc, #32]	; 425c <pwmWrite+0xdc>
    4238:	e08f0000 	add	r0, pc, r0
    423c:	ebfffad6 	bl	2d9c <setupCheck.part.0>
    4240:	e59f0018 	ldr	r0, [pc, #24]	; 4260 <pwmWrite+0xe0>
    4244:	e08f0000 	add	r0, pc, r0
    4248:	ebfffae2 	bl	2dd8 <usingGpioMemCheck.part.1>
    424c:	000187a0 	.word	0x000187a0
    4250:	000180cc 	.word	0x000180cc
    4254:	00018760 	.word	0x00018760
    4258:	00006578 	.word	0x00006578
    425c:	00006d6c 	.word	0x00006d6c
    4260:	00006d60 	.word	0x00006d60

00004264 <analogRead>:
    4264:	e92d4010 	push	{r4, lr}
    4268:	e1a04000 	mov	r4, r0
    426c:	ebfff94e 	bl	27ac <wiringPiFindNode@plt>
    4270:	e2503000 	subs	r3, r0, #0
    4274:	08bd8010 	popeq	{r4, pc}
    4278:	e1a01004 	mov	r1, r4
    427c:	e5933030 	ldr	r3, [r3, #48]	; 0x30
    4280:	e8bd4010 	pop	{r4, lr}
    4284:	e12fff13 	bx	r3

00004288 <analogWrite>:
    4288:	e92d4070 	push	{r4, r5, r6, lr}
    428c:	e1a05001 	mov	r5, r1
    4290:	e1a04000 	mov	r4, r0
    4294:	ebfff944 	bl	27ac <wiringPiFindNode@plt>
    4298:	e2503000 	subs	r3, r0, #0
    429c:	08bd8070 	popeq	{r4, r5, r6, pc}
    42a0:	e1a02005 	mov	r2, r5
    42a4:	e1a01004 	mov	r1, r4
    42a8:	e5933034 	ldr	r3, [r3, #52]	; 0x34
    42ac:	e8bd4070 	pop	{r4, r5, r6, lr}
    42b0:	e12fff13 	bx	r3

000042b4 <digitalWriteByte>:
    42b4:	e59f20a4 	ldr	r2, [pc, #164]	; 4360 <digitalWriteByte+0xac>
    42b8:	e59f30a4 	ldr	r3, [pc, #164]	; 4364 <digitalWriteByte+0xb0>
    42bc:	e08f2002 	add	r2, pc, r2
    42c0:	e08f3003 	add	r3, pc, r3
    42c4:	e5922004 	ldr	r2, [r2, #4]
    42c8:	e92d41f0 	push	{r4, r5, r6, r7, r8, lr}
    42cc:	e3520002 	cmp	r2, #2
    42d0:	e593c010 	ldr	ip, [r3, #16]
    42d4:	0a000013 	beq	4328 <digitalWriteByte+0x74>
    42d8:	e3a02001 	mov	r2, #1
    42dc:	e3a0e000 	mov	lr, #0
    42e0:	e24c1004 	sub	r1, ip, #4
    42e4:	e1a05002 	mov	r5, r2
    42e8:	e1a0400e 	mov	r4, lr
    42ec:	e28cc01c 	add	ip, ip, #28
    42f0:	e5b13004 	ldr	r3, [r1, #4]!
    42f4:	e1100002 	tst	r0, r2
    42f8:	e1a02082 	lsl	r2, r2, #1
    42fc:	e1a03315 	lsl	r3, r5, r3
    4300:	018ee003 	orreq	lr, lr, r3
    4304:	11844003 	orrne	r4, r4, r3
    4308:	e151000c 	cmp	r1, ip
    430c:	1afffff7 	bne	42f0 <digitalWriteByte+0x3c>
    4310:	e59f3050 	ldr	r3, [pc, #80]	; 4368 <digitalWriteByte+0xb4>
    4314:	e08f3003 	add	r3, pc, r3
    4318:	e593301c 	ldr	r3, [r3, #28]
    431c:	e583e028 	str	lr, [r3, #40]	; 0x28
    4320:	e583401c 	str	r4, [r3, #28]
    4324:	e8bd81f0 	pop	{r4, r5, r6, r7, r8, pc}
    4328:	e59f703c 	ldr	r7, [pc, #60]	; 436c <digitalWriteByte+0xb8>
    432c:	e1a06000 	mov	r6, r0
    4330:	e08f7007 	add	r7, pc, r7
    4334:	e3a04000 	mov	r4, #0
    4338:	e3a05001 	mov	r5, #1
    433c:	e79c0004 	ldr	r0, [ip, r4]
    4340:	e0061005 	and	r1, r6, r5
    4344:	e2844004 	add	r4, r4, #4
    4348:	ebfff8cf 	bl	268c <digitalWrite@plt>
    434c:	e3540020 	cmp	r4, #32
    4350:	e1a05085 	lsl	r5, r5, #1
    4354:	08bd81f0 	popeq	{r4, r5, r6, r7, r8, pc}
    4358:	e597c010 	ldr	ip, [r7, #16]
    435c:	eafffff6 	b	433c <digitalWriteByte+0x88>
    4360:	00017fbc 	.word	0x00017fbc
    4364:	00018668 	.word	0x00018668
    4368:	00018614 	.word	0x00018614
    436c:	000185f8 	.word	0x000185f8

00004370 <digitalReadByte>:
    4370:	e59f3090 	ldr	r3, [pc, #144]	; 4408 <digitalReadByte+0x98>
    4374:	e59f1090 	ldr	r1, [pc, #144]	; 440c <digitalReadByte+0x9c>
    4378:	e08f3003 	add	r3, pc, r3
    437c:	e08f1001 	add	r1, pc, r1
    4380:	e5933004 	ldr	r3, [r3, #4]
    4384:	e92d4070 	push	{r4, r5, r6, lr}
    4388:	e3530002 	cmp	r3, #2
    438c:	e5912010 	ldr	r2, [r1, #16]
    4390:	0a00000e 	beq	43d0 <digitalReadByte+0x60>
    4394:	e591101c 	ldr	r1, [r1, #28]
    4398:	e2423004 	sub	r3, r2, #4
    439c:	e3a04000 	mov	r4, #0
    43a0:	e591c034 	ldr	ip, [r1, #52]	; 0x34
    43a4:	e282201c 	add	r2, r2, #28
    43a8:	e3a00001 	mov	r0, #1
    43ac:	e5b31004 	ldr	r1, [r3, #4]!
    43b0:	e01c1110 	ands	r1, ip, r0, lsl r1
    43b4:	13a01001 	movne	r1, #1
    43b8:	03a01000 	moveq	r1, #0
    43bc:	e1520003 	cmp	r2, r3
    43c0:	e1814084 	orr	r4, r1, r4, lsl #1
    43c4:	1afffff8 	bne	43ac <digitalReadByte+0x3c>
    43c8:	e1a00004 	mov	r0, r4
    43cc:	e8bd8070 	pop	{r4, r5, r6, pc}
    43d0:	e59f6038 	ldr	r6, [pc, #56]	; 4410 <digitalReadByte+0xa0>
    43d4:	e3a05000 	mov	r5, #0
    43d8:	e08f6006 	add	r6, pc, r6
    43dc:	e1a04005 	mov	r4, r5
    43e0:	ea000000 	b	43e8 <digitalReadByte+0x78>
    43e4:	e5962010 	ldr	r2, [r6, #16]
    43e8:	e7920005 	ldr	r0, [r2, r5]
    43ec:	ebfff87c 	bl	25e4 <digitalRead@plt>
    43f0:	e2855004 	add	r5, r5, #4
    43f4:	e3550020 	cmp	r5, #32
    43f8:	e1804084 	orr	r4, r0, r4, lsl #1
    43fc:	1afffff8 	bne	43e4 <digitalReadByte+0x74>
    4400:	e1a00004 	mov	r0, r4
    4404:	e8bd8070 	pop	{r4, r5, r6, pc}
    4408:	00017f00 	.word	0x00017f00
    440c:	000185ac 	.word	0x000185ac
    4410:	00018550 	.word	0x00018550

00004414 <digitalWriteByte2>:
    4414:	e59f3068 	ldr	r3, [pc, #104]	; 4484 <digitalWriteByte2+0x70>
    4418:	e08f3003 	add	r3, pc, r3
    441c:	e5933004 	ldr	r3, [r3, #4]
    4420:	e3530002 	cmp	r3, #2
    4424:	0a00000a 	beq	4454 <digitalWriteByte2+0x40>
    4428:	e59f2058 	ldr	r2, [pc, #88]	; 4488 <digitalWriteByte2+0x74>
    442c:	e1e03000 	mvn	r3, r0
    4430:	e08f2002 	add	r2, pc, r2
    4434:	e1a00a00 	lsl	r0, r0, #20
    4438:	e592201c 	ldr	r2, [r2, #28]
    443c:	e1a03a03 	lsl	r3, r3, #20
    4440:	e20336ff 	and	r3, r3, #267386880	; 0xff00000
    4444:	e20006ff 	and	r0, r0, #267386880	; 0xff00000
    4448:	e5823028 	str	r3, [r2, #40]	; 0x28
    444c:	e582001c 	str	r0, [r2, #28]
    4450:	e12fff1e 	bx	lr
    4454:	e92d4070 	push	{r4, r5, r6, lr}
    4458:	e1a04000 	mov	r4, r0
    445c:	e3a05014 	mov	r5, #20
    4460:	e3a06001 	mov	r6, #1
    4464:	e0061004 	and	r1, r6, r4
    4468:	e1a00005 	mov	r0, r5
    446c:	e2855001 	add	r5, r5, #1
    4470:	ebfff885 	bl	268c <digitalWrite@plt>
    4474:	e355001c 	cmp	r5, #28
    4478:	e1a06086 	lsl	r6, r6, #1
    447c:	1afffff8 	bne	4464 <digitalWriteByte2+0x50>
    4480:	e8bd8070 	pop	{r4, r5, r6, pc}
    4484:	00017e60 	.word	0x00017e60
    4488:	000184f8 	.word	0x000184f8

0000448c <digitalReadByte2>:
    448c:	e59f3058 	ldr	r3, [pc, #88]	; 44ec <digitalReadByte2+0x60>
    4490:	e92d4070 	push	{r4, r5, r6, lr}
    4494:	e08f3003 	add	r3, pc, r3
    4498:	e5933004 	ldr	r3, [r3, #4]
    449c:	e3530002 	cmp	r3, #2
    44a0:	0a000007 	beq	44c4 <digitalReadByte2+0x38>
    44a4:	e59f3044 	ldr	r3, [pc, #68]	; 44f0 <digitalReadByte2+0x64>
    44a8:	e08f3003 	add	r3, pc, r3
    44ac:	e593301c 	ldr	r3, [r3, #28]
    44b0:	e5935034 	ldr	r5, [r3, #52]	; 0x34
    44b4:	e1a05a25 	lsr	r5, r5, #20
    44b8:	e6ef5075 	uxtb	r5, r5
    44bc:	e1a00005 	mov	r0, r5
    44c0:	e8bd8070 	pop	{r4, r5, r6, pc}
    44c4:	e3a05000 	mov	r5, #0
    44c8:	e3a04014 	mov	r4, #20
    44cc:	e1a00004 	mov	r0, r4
    44d0:	ebfff843 	bl	25e4 <digitalRead@plt>
    44d4:	e2844001 	add	r4, r4, #1
    44d8:	e354001c 	cmp	r4, #28
    44dc:	e1805085 	orr	r5, r0, r5, lsl #1
    44e0:	1afffff9 	bne	44cc <digitalReadByte2+0x40>
    44e4:	e1a00005 	mov	r0, r5
    44e8:	e8bd8070 	pop	{r4, r5, r6, pc}
    44ec:	00017de4 	.word	0x00017de4
    44f0:	00018480 	.word	0x00018480

000044f4 <waitForInterrupt>:
    44f4:	e59fc0ac 	ldr	ip, [pc, #172]	; 45a8 <waitForInterrupt+0xb4>
    44f8:	e92d4030 	push	{r4, r5, lr}
    44fc:	e08fc00c 	add	ip, pc, ip
    4500:	e24dd014 	sub	sp, sp, #20
    4504:	e59c3004 	ldr	r3, [ip, #4]
    4508:	e3530000 	cmp	r3, #0
    450c:	1a00001d 	bne	4588 <waitForInterrupt+0x94>
    4510:	e59f3094 	ldr	r3, [pc, #148]	; 45ac <waitForInterrupt+0xb8>
    4514:	e08f3003 	add	r3, pc, r3
    4518:	e5933010 	ldr	r3, [r3, #16]
    451c:	e7930100 	ldr	r0, [r3, r0, lsl #2]
    4520:	e59f3088 	ldr	r3, [pc, #136]	; 45b0 <waitForInterrupt+0xbc>
    4524:	e08f3003 	add	r3, pc, r3
    4528:	e0833100 	add	r3, r3, r0, lsl #2
    452c:	e5934008 	ldr	r4, [r3, #8]
    4530:	e3740001 	cmn	r4, #1
    4534:	0a000019 	beq	45a0 <waitForInterrupt+0xac>
    4538:	e1a02001 	mov	r2, r1
    453c:	e3a0300a 	mov	r3, #10
    4540:	e3a01001 	mov	r1, #1
    4544:	e28d0008 	add	r0, sp, #8
    4548:	e58d4008 	str	r4, [sp, #8]
    454c:	e1cd30bc 	strh	r3, [sp, #12]
    4550:	ebfff886 	bl	2770 <poll@plt>
    4554:	e2505000 	subs	r5, r0, #0
    4558:	da000007 	ble	457c <waitForInterrupt+0x88>
    455c:	e3a02000 	mov	r2, #0
    4560:	e1a01002 	mov	r1, r2
    4564:	e1a00004 	mov	r0, r4
    4568:	ebfff84a 	bl	2698 <lseek@plt>
    456c:	e1a00004 	mov	r0, r4
    4570:	e3a02001 	mov	r2, #1
    4574:	e28d1007 	add	r1, sp, #7
    4578:	ebfff80d 	bl	25b4 <read@plt>
    457c:	e1a00005 	mov	r0, r5
    4580:	e28dd014 	add	sp, sp, #20
    4584:	e8bd8030 	pop	{r4, r5, pc}
    4588:	e3530003 	cmp	r3, #3
    458c:	059f3020 	ldreq	r3, [pc, #32]	; 45b4 <waitForInterrupt+0xc0>
    4590:	008f3003 	addeq	r3, pc, r3
    4594:	05933014 	ldreq	r3, [r3, #20]
    4598:	07930100 	ldreq	r0, [r3, r0, lsl #2]
    459c:	eaffffdf 	b	4520 <waitForInterrupt+0x2c>
    45a0:	e3e05001 	mvn	r5, #1
    45a4:	eafffff4 	b	457c <waitForInterrupt+0x88>
    45a8:	00017d7c 	.word	0x00017d7c
    45ac:	00018414 	.word	0x00018414
    45b0:	00017d54 	.word	0x00017d54
    45b4:	00018398 	.word	0x00018398

000045b8 <interruptHandler>:
    45b8:	e92d4070 	push	{r4, r5, r6, lr}
    45bc:	e3a00037 	mov	r0, #55	; 0x37
    45c0:	ebfff7ef 	bl	2584 <piHiPri@plt>
    45c4:	e59f3038 	ldr	r3, [pc, #56]	; 4604 <interruptHandler+0x4c>
    45c8:	e59f5038 	ldr	r5, [pc, #56]	; 4608 <interruptHandler+0x50>
    45cc:	e08f3003 	add	r3, pc, r3
    45d0:	e08f5005 	add	r5, pc, r5
    45d4:	e5934108 	ldr	r4, [r3, #264]	; 0x108
    45d8:	e3e02000 	mvn	r2, #0
    45dc:	e5832108 	str	r2, [r3, #264]	; 0x108
    45e0:	e0855104 	add	r5, r5, r4, lsl #2
    45e4:	e3e01000 	mvn	r1, #0
    45e8:	e1a00004 	mov	r0, r4
    45ec:	ebfff883 	bl	2800 <waitForInterrupt@plt>
    45f0:	e3500000 	cmp	r0, #0
    45f4:	dafffffa 	ble	45e4 <interruptHandler+0x2c>
    45f8:	e5953030 	ldr	r3, [r5, #48]	; 0x30
    45fc:	e12fff33 	blx	r3
    4600:	eafffff7 	b	45e4 <interruptHandler+0x2c>
    4604:	00017cac 	.word	0x00017cac
    4608:	00018358 	.word	0x00018358

0000460c <delay>:
    460c:	e59f2048 	ldr	r2, [pc, #72]	; 465c <delay+0x50>
    4610:	e1a03000 	mov	r3, r0
    4614:	e52de004 	push	{lr}		; (str lr, [sp, #-4]!)
    4618:	e0820392 	umull	r0, r2, r2, r3
    461c:	e24dd014 	sub	sp, sp, #20
    4620:	e1a02322 	lsr	r2, r2, #6
    4624:	e58d2000 	str	r2, [sp]
    4628:	e062c282 	rsb	ip, r2, r2, lsl #5
    462c:	e28d1008 	add	r1, sp, #8
    4630:	e082210c 	add	r2, r2, ip, lsl #2
    4634:	e1a0000d 	mov	r0, sp
    4638:	e0433182 	sub	r3, r3, r2, lsl #3
    463c:	e0632283 	rsb	r2, r3, r3, lsl #5
    4640:	e0622302 	rsb	r2, r2, r2, lsl #6
    4644:	e0833182 	add	r3, r3, r2, lsl #3
    4648:	e1a03303 	lsl	r3, r3, #6
    464c:	e58d3004 	str	r3, [sp, #4]
    4650:	ebfff7f5 	bl	262c <nanosleep@plt>
    4654:	e28dd014 	add	sp, sp, #20
    4658:	e49df004 	pop	{pc}		; (ldr pc, [sp], #4)
    465c:	10624dd3 	.word	0x10624dd3

00004660 <wiringPiISR>:
    4660:	e350003f 	cmp	r0, #63	; 0x3f
    4664:	e92d47f0 	push	{r4, r5, r6, r7, r8, r9, sl, lr}
    4668:	e1a07000 	mov	r7, r0
    466c:	e24dd060 	sub	sp, sp, #96	; 0x60
    4670:	8a000081 	bhi	487c <wiringPiISR+0x21c>
    4674:	e59f3330 	ldr	r3, [pc, #816]	; 49ac <wiringPiISR+0x34c>
    4678:	e08f3003 	add	r3, pc, r3
    467c:	e5933004 	ldr	r3, [r3, #4]
    4680:	e3730001 	cmn	r3, #1
    4684:	0a0000a3 	beq	4918 <wiringPiISR+0x2b8>
    4688:	e3530000 	cmp	r3, #0
    468c:	e1a08002 	mov	r8, r2
    4690:	1a000035 	bne	476c <wiringPiISR+0x10c>
    4694:	e59f3314 	ldr	r3, [pc, #788]	; 49b0 <wiringPiISR+0x350>
    4698:	e08f3003 	add	r3, pc, r3
    469c:	e5933010 	ldr	r3, [r3, #16]
    46a0:	e7936100 	ldr	r6, [r3, r0, lsl #2]
    46a4:	e3510000 	cmp	r1, #0
    46a8:	0a000038 	beq	4790 <wiringPiISR+0x130>
    46ac:	e3510001 	cmp	r1, #1
    46b0:	0a000095 	beq	490c <wiringPiISR+0x2ac>
    46b4:	e3510002 	cmp	r1, #2
    46b8:	0a000076 	beq	4898 <wiringPiISR+0x238>
    46bc:	e59f52f0 	ldr	r5, [pc, #752]	; 49b4 <wiringPiISR+0x354>
    46c0:	e08f5005 	add	r5, pc, r5
    46c4:	e59f12ec 	ldr	r1, [pc, #748]	; 49b8 <wiringPiISR+0x358>
    46c8:	e28d4018 	add	r4, sp, #24
    46cc:	e1a02006 	mov	r2, r6
    46d0:	e08f1001 	add	r1, pc, r1
    46d4:	e1a00004 	mov	r0, r4
    46d8:	ebfff8db 	bl	2a4c <sprintf@plt>
    46dc:	ebfff8c2 	bl	29ec <fork@plt>
    46e0:	e3500000 	cmp	r0, #0
    46e4:	ba000090 	blt	492c <wiringPiISR+0x2cc>
    46e8:	1a000084 	bne	4900 <wiringPiISR+0x2a0>
    46ec:	e59f62c8 	ldr	r6, [pc, #712]	; 49bc <wiringPiISR+0x35c>
    46f0:	e3a01001 	mov	r1, #1
    46f4:	e08f6006 	add	r6, pc, r6
    46f8:	e1a00006 	mov	r0, r6
    46fc:	ebfff8a5 	bl	2998 <access@plt>
    4700:	e3500000 	cmp	r0, #0
    4704:	0a000091 	beq	4950 <wiringPiISR+0x2f0>
    4708:	e59f62b0 	ldr	r6, [pc, #688]	; 49c0 <wiringPiISR+0x360>
    470c:	e3a01001 	mov	r1, #1
    4710:	e08f6006 	add	r6, pc, r6
    4714:	e1a00006 	mov	r0, r6
    4718:	ebfff89e 	bl	2998 <access@plt>
    471c:	e3500000 	cmp	r0, #0
    4720:	1a00009c 	bne	4998 <wiringPiISR+0x338>
    4724:	e59f2298 	ldr	r2, [pc, #664]	; 49c4 <wiringPiISR+0x364>
    4728:	e59f1298 	ldr	r1, [pc, #664]	; 49c8 <wiringPiISR+0x368>
    472c:	e1a03004 	mov	r3, r4
    4730:	e08f2002 	add	r2, pc, r2
    4734:	e08f1001 	add	r1, pc, r1
    4738:	e58d0004 	str	r0, [sp, #4]
    473c:	e58d5000 	str	r5, [sp]
    4740:	e1a00006 	mov	r0, r6
    4744:	ebfff8ab 	bl	29f8 <execl@plt>
    4748:	ebfff868 	bl	28f0 <__errno_location@plt>
    474c:	e5900000 	ldr	r0, [r0]
    4750:	ebfff839 	bl	283c <strerror@plt>
    4754:	e59f1270 	ldr	r1, [pc, #624]	; 49cc <wiringPiISR+0x36c>
    4758:	e08f1001 	add	r1, pc, r1
    475c:	e1a02000 	mov	r2, r0
    4760:	e3a00001 	mov	r0, #1
    4764:	ebfff837 	bl	2848 <wiringPiFailure@plt>
    4768:	ea000041 	b	4874 <wiringPiISR+0x214>
    476c:	e3530003 	cmp	r3, #3
    4770:	11a06000 	movne	r6, r0
    4774:	1affffca 	bne	46a4 <wiringPiISR+0x44>
    4778:	e59f3250 	ldr	r3, [pc, #592]	; 49d0 <wiringPiISR+0x370>
    477c:	e3510000 	cmp	r1, #0
    4780:	e08f3003 	add	r3, pc, r3
    4784:	e5933014 	ldr	r3, [r3, #20]
    4788:	e7936100 	ldr	r6, [r3, r0, lsl #2]
    478c:	1affffc6 	bne	46ac <wiringPiISR+0x4c>
    4790:	e59f423c 	ldr	r4, [pc, #572]	; 49d4 <wiringPiISR+0x374>
    4794:	e1a09106 	lsl	r9, r6, #2
    4798:	e08f4004 	add	r4, pc, r4
    479c:	e0844009 	add	r4, r4, r9
    47a0:	e5945008 	ldr	r5, [r4, #8]
    47a4:	e3750001 	cmn	r5, #1
    47a8:	0a00003d 	beq	48a4 <wiringPiISR+0x244>
    47ac:	e28d2014 	add	r2, sp, #20
    47b0:	e59f1220 	ldr	r1, [pc, #544]	; 49d8 <wiringPiISR+0x378>
    47b4:	e1a00005 	mov	r0, r5
    47b8:	ebfff7f8 	bl	27a0 <ioctl@plt>
    47bc:	e59d3014 	ldr	r3, [sp, #20]
    47c0:	e3530000 	cmp	r3, #0
    47c4:	da00000e 	ble	4804 <wiringPiISR+0x1a4>
    47c8:	e59f620c 	ldr	r6, [pc, #524]	; 49dc <wiringPiISR+0x37c>
    47cc:	e3a04000 	mov	r4, #0
    47d0:	e08f6006 	add	r6, pc, r6
    47d4:	e0866009 	add	r6, r6, r9
    47d8:	e28d900f 	add	r9, sp, #15
    47dc:	ea000000 	b	47e4 <wiringPiISR+0x184>
    47e0:	e5965008 	ldr	r5, [r6, #8]
    47e4:	e1a00005 	mov	r0, r5
    47e8:	e3a02001 	mov	r2, #1
    47ec:	e1a01009 	mov	r1, r9
    47f0:	ebfff76f 	bl	25b4 <read@plt>
    47f4:	e59d3014 	ldr	r3, [sp, #20]
    47f8:	e2844001 	add	r4, r4, #1
    47fc:	e1530004 	cmp	r3, r4
    4800:	cafffff6 	bgt	47e0 <wiringPiISR+0x180>
    4804:	e59f01d4 	ldr	r0, [pc, #468]	; 49e0 <wiringPiISR+0x380>
    4808:	e59f41d4 	ldr	r4, [pc, #468]	; 49e4 <wiringPiISR+0x384>
    480c:	e08f0000 	add	r0, pc, r0
    4810:	e0803107 	add	r3, r0, r7, lsl #2
    4814:	e2800e13 	add	r0, r0, #304	; 0x130
    4818:	e5838030 	str	r8, [r3, #48]	; 0x30
    481c:	ebfff77f 	bl	2620 <pthread_mutex_lock@plt>
    4820:	e59f21c0 	ldr	r2, [pc, #448]	; 49e8 <wiringPiISR+0x388>
    4824:	e3a03000 	mov	r3, #0
    4828:	e08f4004 	add	r4, pc, r4
    482c:	e1a01003 	mov	r1, r3
    4830:	e08f2002 	add	r2, pc, r2
    4834:	e28d0010 	add	r0, sp, #16
    4838:	e5847108 	str	r7, [r4, #264]	; 0x108
    483c:	ebfff7e9 	bl	27e8 <pthread_create@plt>
    4840:	e5943108 	ldr	r3, [r4, #264]	; 0x108
    4844:	e3730001 	cmn	r3, #1
    4848:	0a000004 	beq	4860 <wiringPiISR+0x200>
    484c:	e3a00001 	mov	r0, #1
    4850:	ebfff7e7 	bl	27f4 <delay@plt>
    4854:	e5943108 	ldr	r3, [r4, #264]	; 0x108
    4858:	e3730001 	cmn	r3, #1
    485c:	1afffffa 	bne	484c <wiringPiISR+0x1ec>
    4860:	e59f0184 	ldr	r0, [pc, #388]	; 49ec <wiringPiISR+0x38c>
    4864:	e08f0000 	add	r0, pc, r0
    4868:	e2800e13 	add	r0, r0, #304	; 0x130
    486c:	ebfff71d 	bl	24e8 <pthread_mutex_unlock@plt>
    4870:	e3a00000 	mov	r0, #0
    4874:	e28dd060 	add	sp, sp, #96	; 0x60
    4878:	e8bd87f0 	pop	{r4, r5, r6, r7, r8, r9, sl, pc}
    487c:	e59f116c 	ldr	r1, [pc, #364]	; 49f0 <wiringPiISR+0x390>
    4880:	e1a02000 	mov	r2, r0
    4884:	e08f1001 	add	r1, pc, r1
    4888:	e3a00001 	mov	r0, #1
    488c:	ebfff7ed 	bl	2848 <wiringPiFailure@plt>
    4890:	e28dd060 	add	sp, sp, #96	; 0x60
    4894:	e8bd87f0 	pop	{r4, r5, r6, r7, r8, r9, sl, pc}
    4898:	e59f5154 	ldr	r5, [pc, #340]	; 49f4 <wiringPiISR+0x394>
    489c:	e08f5005 	add	r5, pc, r5
    48a0:	eaffff87 	b	46c4 <wiringPiISR+0x64>
    48a4:	e59f114c 	ldr	r1, [pc, #332]	; 49f8 <wiringPiISR+0x398>
    48a8:	e28da020 	add	sl, sp, #32
    48ac:	e1a02006 	mov	r2, r6
    48b0:	e08f1001 	add	r1, pc, r1
    48b4:	e1a0000a 	mov	r0, sl
    48b8:	ebfff863 	bl	2a4c <sprintf@plt>
    48bc:	e1a0000a 	mov	r0, sl
    48c0:	e3a01002 	mov	r1, #2
    48c4:	ebfff7e5 	bl	2860 <open@plt>
    48c8:	e3500000 	cmp	r0, #0
    48cc:	e1a05000 	mov	r5, r0
    48d0:	e5840008 	str	r0, [r4, #8]
    48d4:	aaffffb4 	bge	47ac <wiringPiISR+0x14c>
    48d8:	ebfff804 	bl	28f0 <__errno_location@plt>
    48dc:	e5900000 	ldr	r0, [r0]
    48e0:	ebfff7d5 	bl	283c <strerror@plt>
    48e4:	e59f1110 	ldr	r1, [pc, #272]	; 49fc <wiringPiISR+0x39c>
    48e8:	e1a0200a 	mov	r2, sl
    48ec:	e08f1001 	add	r1, pc, r1
    48f0:	e1a03000 	mov	r3, r0
    48f4:	e3a00001 	mov	r0, #1
    48f8:	ebfff7d2 	bl	2848 <wiringPiFailure@plt>
    48fc:	eaffffdc 	b	4874 <wiringPiISR+0x214>
    4900:	e3a00000 	mov	r0, #0
    4904:	ebfff78a 	bl	2734 <wait@plt>
    4908:	eaffffa0 	b	4790 <wiringPiISR+0x130>
    490c:	e59f50ec 	ldr	r5, [pc, #236]	; 4a00 <wiringPiISR+0x3a0>
    4910:	e08f5005 	add	r5, pc, r5
    4914:	eaffff6a 	b	46c4 <wiringPiISR+0x64>
    4918:	e59f10e4 	ldr	r1, [pc, #228]	; 4a04 <wiringPiISR+0x3a4>
    491c:	e3a00001 	mov	r0, #1
    4920:	e08f1001 	add	r1, pc, r1
    4924:	ebfff7c7 	bl	2848 <wiringPiFailure@plt>
    4928:	eaffffd1 	b	4874 <wiringPiISR+0x214>
    492c:	ebfff7ef 	bl	28f0 <__errno_location@plt>
    4930:	e5900000 	ldr	r0, [r0]
    4934:	ebfff7c0 	bl	283c <strerror@plt>
    4938:	e59f10c8 	ldr	r1, [pc, #200]	; 4a08 <wiringPiISR+0x3a8>
    493c:	e08f1001 	add	r1, pc, r1
    4940:	e1a02000 	mov	r2, r0
    4944:	e3a00001 	mov	r0, #1
    4948:	ebfff7be 	bl	2848 <wiringPiFailure@plt>
    494c:	eaffffc8 	b	4874 <wiringPiISR+0x214>
    4950:	e59f20b4 	ldr	r2, [pc, #180]	; 4a0c <wiringPiISR+0x3ac>
    4954:	e59f10b4 	ldr	r1, [pc, #180]	; 4a10 <wiringPiISR+0x3b0>
    4958:	e1a03004 	mov	r3, r4
    495c:	e08f2002 	add	r2, pc, r2
    4960:	e08f1001 	add	r1, pc, r1
    4964:	e58d0004 	str	r0, [sp, #4]
    4968:	e58d5000 	str	r5, [sp]
    496c:	e1a00006 	mov	r0, r6
    4970:	ebfff820 	bl	29f8 <execl@plt>
    4974:	ebfff7dd 	bl	28f0 <__errno_location@plt>
    4978:	e5900000 	ldr	r0, [r0]
    497c:	ebfff7ae 	bl	283c <strerror@plt>
    4980:	e59f108c 	ldr	r1, [pc, #140]	; 4a14 <wiringPiISR+0x3b4>
    4984:	e08f1001 	add	r1, pc, r1
    4988:	e1a02000 	mov	r2, r0
    498c:	e3a00001 	mov	r0, #1
    4990:	ebfff7ac 	bl	2848 <wiringPiFailure@plt>
    4994:	eaffffb6 	b	4874 <wiringPiISR+0x214>
    4998:	e59f1078 	ldr	r1, [pc, #120]	; 4a18 <wiringPiISR+0x3b8>
    499c:	e3a00001 	mov	r0, #1
    49a0:	e08f1001 	add	r1, pc, r1
    49a4:	ebfff7a7 	bl	2848 <wiringPiFailure@plt>
    49a8:	eaffffb1 	b	4874 <wiringPiISR+0x214>
    49ac:	00017c00 	.word	0x00017c00
    49b0:	00018290 	.word	0x00018290
    49b4:	00006900 	.word	0x00006900
    49b8:	00006964 	.word	0x00006964
    49bc:	00006964 	.word	0x00006964
    49c0:	0000698c 	.word	0x0000698c
    49c4:	0000693c 	.word	0x0000693c
    49c8:	00006940 	.word	0x00006940
    49cc:	00006924 	.word	0x00006924
    49d0:	000181a8 	.word	0x000181a8
    49d4:	00017ae0 	.word	0x00017ae0
    49d8:	0000541b 	.word	0x0000541b
    49dc:	00017aa8 	.word	0x00017aa8
    49e0:	0001811c 	.word	0x0001811c
    49e4:	00017a50 	.word	0x00017a50
    49e8:	fffffd80 	.word	0xfffffd80
    49ec:	000180c4 	.word	0x000180c4
    49f0:	00006744 	.word	0x00006744
    49f4:	0000671c 	.word	0x0000671c
    49f8:	00006824 	.word	0x00006824
    49fc:	00006808 	.word	0x00006808
    4a00:	000066a0 	.word	0x000066a0
    4a04:	000066cc 	.word	0x000066cc
    4a08:	000066fc 	.word	0x000066fc
    4a0c:	00006710 	.word	0x00006710
    4a10:	00006714 	.word	0x00006714
    4a14:	000066f8 	.word	0x000066f8
    4a18:	0000670c 	.word	0x0000670c

00004a1c <delayMicrosecondsHard>:
    4a1c:	e92d40f0 	push	{r4, r5, r6, r7, lr}
    4a20:	e1a06000 	mov	r6, r0
    4a24:	e59f4090 	ldr	r4, [pc, #144]	; 4abc <delayMicrosecondsHard+0xa0>
    4a28:	e24dd00c 	sub	sp, sp, #12
    4a2c:	e1a0700d 	mov	r7, sp
    4a30:	e0843694 	umull	r3, r4, r4, r6
    4a34:	e3a01000 	mov	r1, #0
    4a38:	e1a04924 	lsr	r4, r4, #18
    4a3c:	e1a00007 	mov	r0, r7
    4a40:	ebfff762 	bl	27d0 <gettimeofday@plt>
    4a44:	e0642284 	rsb	r2, r4, r4, lsl #5
    4a48:	e59d0004 	ldr	r0, [sp, #4]
    4a4c:	e0625302 	rsb	r5, r2, r2, lsl #6
    4a50:	e59f1068 	ldr	r1, [pc, #104]	; 4ac0 <delayMicrosecondsHard+0xa4>
    4a54:	e0845185 	add	r5, r4, r5, lsl #3
    4a58:	e59d3000 	ldr	r3, [sp]
    4a5c:	e0465305 	sub	r5, r6, r5, lsl #6
    4a60:	e0855000 	add	r5, r5, r0
    4a64:	e1550001 	cmp	r5, r1
    4a68:	e0844003 	add	r4, r4, r3
    4a6c:	c245593d 	subgt	r5, r5, #999424	; 0xf4000
    4a70:	c2455d09 	subgt	r5, r5, #576	; 0x240
    4a74:	c2844001 	addgt	r4, r4, #1
    4a78:	ea000001 	b	4a84 <delayMicrosecondsHard+0x68>
    4a7c:	ebfff753 	bl	27d0 <gettimeofday@plt>
    4a80:	e59d3000 	ldr	r3, [sp]
    4a84:	e1540003 	cmp	r4, r3
    4a88:	c3a03001 	movgt	r3, #1
    4a8c:	d3a03000 	movle	r3, #0
    4a90:	1a000003 	bne	4aa4 <delayMicrosecondsHard+0x88>
    4a94:	e59d3004 	ldr	r3, [sp, #4]
    4a98:	e1530005 	cmp	r3, r5
    4a9c:	a3a03000 	movge	r3, #0
    4aa0:	b3a03001 	movlt	r3, #1
    4aa4:	e3a01000 	mov	r1, #0
    4aa8:	e1530001 	cmp	r3, r1
    4aac:	e1a00007 	mov	r0, r7
    4ab0:	1afffff1 	bne	4a7c <delayMicrosecondsHard+0x60>
    4ab4:	e28dd00c 	add	sp, sp, #12
    4ab8:	e8bd80f0 	pop	{r4, r5, r6, r7, pc}
    4abc:	431bde83 	.word	0x431bde83
    4ac0:	000f423f 	.word	0x000f423f

00004ac4 <delayMicroseconds>:
    4ac4:	e2503000 	subs	r3, r0, #0
    4ac8:	012fff1e 	bxeq	lr
    4acc:	e3530063 	cmp	r3, #99	; 0x63
    4ad0:	e52de004 	push	{lr}		; (str lr, [sp, #-4]!)
    4ad4:	e24dd00c 	sub	sp, sp, #12
    4ad8:	9a000010 	bls	4b20 <delayMicroseconds+0x5c>
    4adc:	e59f2048 	ldr	r2, [pc, #72]	; 4b2c <delayMicroseconds+0x68>
    4ae0:	e3a01000 	mov	r1, #0
    4ae4:	e1a0000d 	mov	r0, sp
    4ae8:	e082c392 	umull	ip, r2, r2, r3
    4aec:	e1a02922 	lsr	r2, r2, #18
    4af0:	e58d2000 	str	r2, [sp]
    4af4:	e062c282 	rsb	ip, r2, r2, lsl #5
    4af8:	e06cc30c 	rsb	ip, ip, ip, lsl #6
    4afc:	e082218c 	add	r2, r2, ip, lsl #3
    4b00:	e0433302 	sub	r3, r3, r2, lsl #6
    4b04:	e0632283 	rsb	r2, r3, r3, lsl #5
    4b08:	e0833102 	add	r3, r3, r2, lsl #2
    4b0c:	e1a03183 	lsl	r3, r3, #3
    4b10:	e58d3004 	str	r3, [sp, #4]
    4b14:	ebfff6c4 	bl	262c <nanosleep@plt>
    4b18:	e28dd00c 	add	sp, sp, #12
    4b1c:	e49df004 	pop	{pc}		; (ldr pc, [sp], #4)
    4b20:	ebfff7d2 	bl	2a70 <delayMicrosecondsHard@plt>
    4b24:	e28dd00c 	add	sp, sp, #12
    4b28:	e49df004 	pop	{pc}		; (ldr pc, [sp], #4)
    4b2c:	431bde83 	.word	0x431bde83

00004b30 <pwmSetRange>:
    4b30:	e59f3044 	ldr	r3, [pc, #68]	; 4b7c <pwmSetRange+0x4c>
    4b34:	e08f3003 	add	r3, pc, r3
    4b38:	e5933004 	ldr	r3, [r3, #4]
    4b3c:	e3530003 	cmp	r3, #3
    4b40:	13530001 	cmpne	r3, #1
    4b44:	812fff1e 	bxhi	lr
    4b48:	e92d4070 	push	{r4, r5, r6, lr}
    4b4c:	e1a04000 	mov	r4, r0
    4b50:	e59f5028 	ldr	r5, [pc, #40]	; 4b80 <pwmSetRange+0x50>
    4b54:	e3a0000a 	mov	r0, #10
    4b58:	e08f5005 	add	r5, pc, r5
    4b5c:	e5953020 	ldr	r3, [r5, #32]
    4b60:	e5834010 	str	r4, [r3, #16]
    4b64:	ebfff707 	bl	2788 <delayMicroseconds@plt>
    4b68:	e5953020 	ldr	r3, [r5, #32]
    4b6c:	e3a0000a 	mov	r0, #10
    4b70:	e5834020 	str	r4, [r3, #32]
    4b74:	e8bd4070 	pop	{r4, r5, r6, lr}
    4b78:	eafff702 	b	2788 <delayMicroseconds@plt>
    4b7c:	00017744 	.word	0x00017744
    4b80:	00017dd0 	.word	0x00017dd0

00004b84 <pwmToneWrite>:
    4b84:	e59f3054 	ldr	r3, [pc, #84]	; 4be0 <pwmToneWrite+0x5c>
    4b88:	e92d4070 	push	{r4, r5, r6, lr}
    4b8c:	e08f3003 	add	r3, pc, r3
    4b90:	e5933028 	ldr	r3, [r3, #40]	; 0x28
    4b94:	e3530000 	cmp	r3, #0
    4b98:	0a00000d 	beq	4bd4 <pwmToneWrite+0x50>
    4b9c:	e3510000 	cmp	r1, #0
    4ba0:	e1a04001 	mov	r4, r1
    4ba4:	1a000001 	bne	4bb0 <pwmToneWrite+0x2c>
    4ba8:	e8bd4070 	pop	{r4, r5, r6, lr}
    4bac:	eafff6c2 	b	26bc <pwmWrite@plt>
    4bb0:	e1a05000 	mov	r5, r0
    4bb4:	e0844fa4 	add	r4, r4, r4, lsr #31
    4bb8:	e59f0024 	ldr	r0, [pc, #36]	; 4be4 <pwmToneWrite+0x60>
    4bbc:	eb001651 	bl	a508 <__divsi3>
    4bc0:	ebfff79e 	bl	2a40 <pwmSetRange@plt>
    4bc4:	e1a00005 	mov	r0, r5
    4bc8:	e1a010c4 	asr	r1, r4, #1
    4bcc:	e8bd4070 	pop	{r4, r5, r6, lr}
    4bd0:	eafff6b9 	b	26bc <pwmWrite@plt>
    4bd4:	e59f000c 	ldr	r0, [pc, #12]	; 4be8 <pwmToneWrite+0x64>
    4bd8:	e08f0000 	add	r0, pc, r0
    4bdc:	ebfff86e 	bl	2d9c <setupCheck.part.0>
    4be0:	00017d9c 	.word	0x00017d9c
    4be4:	000927c0 	.word	0x000927c0
    4be8:	00006540 	.word	0x00006540

00004bec <pwmSetClock>:
    4bec:	e59f3118 	ldr	r3, [pc, #280]	; 4d0c <pwmSetClock+0x120>
    4bf0:	e59f2118 	ldr	r2, [pc, #280]	; 4d10 <pwmSetClock+0x124>
    4bf4:	e08f3003 	add	r3, pc, r3
    4bf8:	e08f2002 	add	r2, pc, r2
    4bfc:	e5933148 	ldr	r3, [r3, #328]	; 0x148
    4c00:	e92d41f0 	push	{r4, r5, r6, r7, r8, lr}
    4c04:	e35304fe 	cmp	r3, #-33554432	; 0xfe000000
    4c08:	1a000006 	bne	4c28 <pwmSetClock+0x3c>
    4c0c:	e0800180 	add	r0, r0, r0, lsl #3
    4c10:	e59f40fc 	ldr	r4, [pc, #252]	; 4d14 <pwmSetClock+0x128>
    4c14:	e0600200 	rsb	r0, r0, r0, lsl #4
    4c18:	e1a03100 	lsl	r3, r0, #2
    4c1c:	e0c41394 	smull	r1, r4, r4, r3
    4c20:	e1a00fc3 	asr	r0, r3, #31
    4c24:	e06002c4 	rsb	r0, r0, r4, asr #5
    4c28:	e59f30e8 	ldr	r3, [pc, #232]	; 4d18 <pwmSetClock+0x12c>
    4c2c:	e08f3003 	add	r3, pc, r3
    4c30:	e5933004 	ldr	r3, [r3, #4]
    4c34:	e3530003 	cmp	r3, #3
    4c38:	13530001 	cmpne	r3, #1
    4c3c:	88bd81f0 	pophi	{r4, r5, r6, r7, r8, pc}
    4c40:	e59f30d4 	ldr	r3, [pc, #212]	; 4d1c <pwmSetClock+0x130>
    4c44:	e59f50d4 	ldr	r5, [pc, #212]	; 4d20 <pwmSetClock+0x134>
    4c48:	e1a04a00 	lsl	r4, r0, #20
    4c4c:	e7926003 	ldr	r6, [r2, r3]
    4c50:	e08f5005 	add	r5, pc, r5
    4c54:	e1a04a24 	lsr	r4, r4, #20
    4c58:	e5963000 	ldr	r3, [r6]
    4c5c:	e5952024 	ldr	r2, [r5, #36]	; 0x24
    4c60:	e3530000 	cmp	r3, #0
    4c64:	1a000021 	bne	4cf0 <pwmSetClock+0x104>
    4c68:	e59f50b4 	ldr	r5, [pc, #180]	; 4d24 <pwmSetClock+0x138>
    4c6c:	e59f10b4 	ldr	r1, [pc, #180]	; 4d28 <pwmSetClock+0x13c>
    4c70:	e08f5005 	add	r5, pc, r5
    4c74:	e3a0c000 	mov	ip, #0
    4c78:	e5953020 	ldr	r3, [r5, #32]
    4c7c:	e3a0006e 	mov	r0, #110	; 0x6e
    4c80:	e5937000 	ldr	r7, [r3]
    4c84:	e583c000 	str	ip, [r3]
    4c88:	e58210a0 	str	r1, [r2, #160]	; 0xa0
    4c8c:	ea000000 	b	4c94 <pwmSetClock+0xa8>
    4c90:	e3a00001 	mov	r0, #1
    4c94:	ebfff6bb 	bl	2788 <delayMicroseconds@plt>
    4c98:	e5953024 	ldr	r3, [r5, #36]	; 0x24
    4c9c:	e59320a0 	ldr	r2, [r3, #160]	; 0xa0
    4ca0:	e3120080 	tst	r2, #128	; 0x80
    4ca4:	1afffff9 	bne	4c90 <pwmSetClock+0xa4>
    4ca8:	e59f107c 	ldr	r1, [pc, #124]	; 4d2c <pwmSetClock+0x140>
    4cac:	e1a02604 	lsl	r2, r4, #12
    4cb0:	e08f1001 	add	r1, pc, r1
    4cb4:	e59f0074 	ldr	r0, [pc, #116]	; 4d30 <pwmSetClock+0x144>
    4cb8:	e5911020 	ldr	r1, [r1, #32]
    4cbc:	e382245a 	orr	r2, r2, #1509949440	; 0x5a000000
    4cc0:	e58320a4 	str	r2, [r3, #164]	; 0xa4
    4cc4:	e58300a0 	str	r0, [r3, #160]	; 0xa0
    4cc8:	e5817000 	str	r7, [r1]
    4ccc:	e5962000 	ldr	r2, [r6]
    4cd0:	e3520000 	cmp	r2, #0
    4cd4:	08bd81f0 	popeq	{r4, r5, r6, r7, r8, pc}
    4cd8:	e59f0054 	ldr	r0, [pc, #84]	; 4d34 <pwmSetClock+0x148>
    4cdc:	e1a01004 	mov	r1, r4
    4ce0:	e59320a4 	ldr	r2, [r3, #164]	; 0xa4
    4ce4:	e08f0000 	add	r0, pc, r0
    4ce8:	e8bd41f0 	pop	{r4, r5, r6, r7, r8, lr}
    4cec:	eafff627 	b	2590 <printf@plt>
    4cf0:	e59f0040 	ldr	r0, [pc, #64]	; 4d38 <pwmSetClock+0x14c>
    4cf4:	e59220a4 	ldr	r2, [r2, #164]	; 0xa4
    4cf8:	e1a01004 	mov	r1, r4
    4cfc:	e08f0000 	add	r0, pc, r0
    4d00:	ebfff622 	bl	2590 <printf@plt>
    4d04:	e5952024 	ldr	r2, [r5, #36]	; 0x24
    4d08:	eaffffd6 	b	4c68 <pwmSetClock+0x7c>
    4d0c:	00017d34 	.word	0x00017d34
    4d10:	00017400 	.word	0x00017400
    4d14:	2aaaaaab 	.word	0x2aaaaaab
    4d18:	0001764c 	.word	0x0001764c
    4d1c:	00000248 	.word	0x00000248
    4d20:	00017cd8 	.word	0x00017cd8
    4d24:	00017cb8 	.word	0x00017cb8
    4d28:	5a000001 	.word	0x5a000001
    4d2c:	00017c78 	.word	0x00017c78
    4d30:	5a000011 	.word	0x5a000011
    4d34:	00006468 	.word	0x00006468
    4d38:	0000642c 	.word	0x0000642c

00004d3c <pinMode>:
    4d3c:	e59f3234 	ldr	r3, [pc, #564]	; 4f78 <pinMode+0x23c>
    4d40:	e92d4070 	push	{r4, r5, r6, lr}
    4d44:	e08f3003 	add	r3, pc, r3
    4d48:	e5932028 	ldr	r2, [r3, #40]	; 0x28
    4d4c:	e3520000 	cmp	r2, #0
    4d50:	0a00007f 	beq	4f54 <pinMode+0x218>
    4d54:	e3d0203f 	bics	r2, r0, #63	; 0x3f
    4d58:	e1a05001 	mov	r5, r1
    4d5c:	e1a04000 	mov	r4, r0
    4d60:	1a000040 	bne	4e68 <pinMode+0x12c>
    4d64:	e59f2210 	ldr	r2, [pc, #528]	; 4f7c <pinMode+0x240>
    4d68:	e08f2002 	add	r2, pc, r2
    4d6c:	e5922004 	ldr	r2, [r2, #4]
    4d70:	e3520000 	cmp	r2, #0
    4d74:	1a000014 	bne	4dcc <pinMode+0x90>
    4d78:	e5933010 	ldr	r3, [r3, #16]
    4d7c:	e7936100 	ldr	r6, [r3, r0, lsl #2]
    4d80:	e1a00004 	mov	r0, r4
    4d84:	ebfff65e 	bl	2704 <softPwmStop@plt>
    4d88:	e1a00004 	mov	r0, r4
    4d8c:	ebfff6e6 	bl	292c <softToneStop@plt>
    4d90:	e59f31e8 	ldr	r3, [pc, #488]	; 4f80 <pinMode+0x244>
    4d94:	e3550000 	cmp	r5, #0
    4d98:	e08f3003 	add	r3, pc, r3
    4d9c:	e7f32006 	ldrb	r2, [r3, r6]!
    4da0:	e5d3103c 	ldrb	r1, [r3, #60]	; 0x3c
    4da4:	1a00000e 	bne	4de4 <pinMode+0xa8>
    4da8:	e59f31d4 	ldr	r3, [pc, #468]	; 4f84 <pinMode+0x248>
    4dac:	e6bf2072 	sxth	r2, r2
    4db0:	e08f3003 	add	r3, pc, r3
    4db4:	e3a00007 	mov	r0, #7
    4db8:	e593301c 	ldr	r3, [r3, #28]
    4dbc:	e7935102 	ldr	r5, [r3, r2, lsl #2]
    4dc0:	e1c55110 	bic	r5, r5, r0, lsl r1
    4dc4:	e7835102 	str	r5, [r3, r2, lsl #2]
    4dc8:	e8bd8070 	pop	{r4, r5, r6, pc}
    4dcc:	e3520003 	cmp	r2, #3
    4dd0:	0a00002c 	beq	4e88 <pinMode+0x14c>
    4dd4:	e3520001 	cmp	r2, #1
    4dd8:	18bd8070 	popne	{r4, r5, r6, pc}
    4ddc:	e1a06000 	mov	r6, r0
    4de0:	eaffffe6 	b	4d80 <pinMode+0x44>
    4de4:	e3550001 	cmp	r5, #1
    4de8:	0a000029 	beq	4e94 <pinMode+0x158>
    4dec:	e3550004 	cmp	r5, #4
    4df0:	0a000031 	beq	4ebc <pinMode+0x180>
    4df4:	e3550005 	cmp	r5, #5
    4df8:	0a00004c 	beq	4f30 <pinMode+0x1f4>
    4dfc:	e3550006 	cmp	r5, #6
    4e00:	0a00004d 	beq	4f3c <pinMode+0x200>
    4e04:	e3550002 	cmp	r5, #2
    4e08:	0a000030 	beq	4ed0 <pinMode+0x194>
    4e0c:	e3550003 	cmp	r5, #3
    4e10:	18bd8070 	popne	{r4, r5, r6, pc}
    4e14:	e5d33238 	ldrb	r3, [r3, #568]	; 0x238
    4e18:	e3530000 	cmp	r3, #0
    4e1c:	08bd8070 	popeq	{r4, r5, r6, pc}
    4e20:	e59f0160 	ldr	r0, [pc, #352]	; 4f88 <pinMode+0x24c>
    4e24:	e08f0000 	add	r0, pc, r0
    4e28:	e590c02c 	ldr	ip, [r0, #44]	; 0x2c
    4e2c:	e35c0000 	cmp	ip, #0
    4e30:	1a00004a 	bne	4f60 <pinMode+0x224>
    4e34:	e590c01c 	ldr	ip, [r0, #28]
    4e38:	e6bf2072 	sxth	r2, r2
    4e3c:	e3a0e007 	mov	lr, #7
    4e40:	e79c5102 	ldr	r5, [ip, r2, lsl #2]
    4e44:	e3a0006e 	mov	r0, #110	; 0x6e
    4e48:	e1c5511e 	bic	r5, r5, lr, lsl r1
    4e4c:	e1855113 	orr	r5, r5, r3, lsl r1
    4e50:	e78c5102 	str	r5, [ip, r2, lsl #2]
    4e54:	ebfff64b 	bl	2788 <delayMicroseconds@plt>
    4e58:	e1a00006 	mov	r0, r6
    4e5c:	e59f1128 	ldr	r1, [pc, #296]	; 4f8c <pinMode+0x250>
    4e60:	e8bd4070 	pop	{r4, r5, r6, lr}
    4e64:	eafff6ef 	b	2a28 <gpioClockSet@plt>
    4e68:	ebfff64f 	bl	27ac <wiringPiFindNode@plt>
    4e6c:	e2503000 	subs	r3, r0, #0
    4e70:	08bd8070 	popeq	{r4, r5, r6, pc}
    4e74:	e1a02005 	mov	r2, r5
    4e78:	e1a01004 	mov	r1, r4
    4e7c:	e593301c 	ldr	r3, [r3, #28]
    4e80:	e8bd4070 	pop	{r4, r5, r6, lr}
    4e84:	e12fff13 	bx	r3
    4e88:	e5933014 	ldr	r3, [r3, #20]
    4e8c:	e7936100 	ldr	r6, [r3, r0, lsl #2]
    4e90:	eaffffba 	b	4d80 <pinMode+0x44>
    4e94:	e59f00f4 	ldr	r0, [pc, #244]	; 4f90 <pinMode+0x254>
    4e98:	e6bf2072 	sxth	r2, r2
    4e9c:	e08f0000 	add	r0, pc, r0
    4ea0:	e3a0c007 	mov	ip, #7
    4ea4:	e590001c 	ldr	r0, [r0, #28]
    4ea8:	e7903102 	ldr	r3, [r0, r2, lsl #2]
    4eac:	e1c3311c 	bic	r3, r3, ip, lsl r1
    4eb0:	e1835115 	orr	r5, r3, r5, lsl r1
    4eb4:	e7805102 	str	r5, [r0, r2, lsl #2]
    4eb8:	e8bd8070 	pop	{r4, r5, r6, pc}
    4ebc:	e1a00004 	mov	r0, r4
    4ec0:	e3a02064 	mov	r2, #100	; 0x64
    4ec4:	e3a01000 	mov	r1, #0
    4ec8:	e8bd4070 	pop	{r4, r5, r6, lr}
    4ecc:	eafff6e1 	b	2a58 <softPwmCreate@plt>
    4ed0:	e5d331f8 	ldrb	r3, [r3, #504]	; 0x1f8
    4ed4:	e3530000 	cmp	r3, #0
    4ed8:	08bd8070 	popeq	{r4, r5, r6, pc}
    4edc:	e59f00b0 	ldr	r0, [pc, #176]	; 4f94 <pinMode+0x258>
    4ee0:	e08f0000 	add	r0, pc, r0
    4ee4:	e590c02c 	ldr	ip, [r0, #44]	; 0x2c
    4ee8:	e35c0000 	cmp	ip, #0
    4eec:	1a00001e 	bne	4f6c <pinMode+0x230>
    4ef0:	e590c01c 	ldr	ip, [r0, #28]
    4ef4:	e6bf2072 	sxth	r2, r2
    4ef8:	e3a0e007 	mov	lr, #7
    4efc:	e79c5102 	ldr	r5, [ip, r2, lsl #2]
    4f00:	e3a0006e 	mov	r0, #110	; 0x6e
    4f04:	e1c5511e 	bic	r5, r5, lr, lsl r1
    4f08:	e1855113 	orr	r5, r5, r3, lsl r1
    4f0c:	e78c5102 	str	r5, [ip, r2, lsl #2]
    4f10:	ebfff61c 	bl	2788 <delayMicroseconds@plt>
    4f14:	e3a00001 	mov	r0, #1
    4f18:	ebfff5ba 	bl	2608 <pwmSetMode@plt>
    4f1c:	e3a00b01 	mov	r0, #1024	; 0x400
    4f20:	ebfff6c6 	bl	2a40 <pwmSetRange@plt>
    4f24:	e3a00020 	mov	r0, #32
    4f28:	e8bd4070 	pop	{r4, r5, r6, lr}
    4f2c:	eafff5f1 	b	26f8 <pwmSetClock@plt>
    4f30:	e1a00004 	mov	r0, r4
    4f34:	e8bd4070 	pop	{r4, r5, r6, lr}
    4f38:	eafff68d 	b	2974 <softToneCreate@plt>
    4f3c:	e1a00004 	mov	r0, r4
    4f40:	e3a01002 	mov	r1, #2
    4f44:	ebffff7c 	bl	4d3c <pinMode>
    4f48:	e3a00000 	mov	r0, #0
    4f4c:	e8bd4070 	pop	{r4, r5, r6, lr}
    4f50:	eafff5ac 	b	2608 <pwmSetMode@plt>
    4f54:	e59f003c 	ldr	r0, [pc, #60]	; 4f98 <pinMode+0x25c>
    4f58:	e08f0000 	add	r0, pc, r0
    4f5c:	ebfff78e 	bl	2d9c <setupCheck.part.0>
    4f60:	e59f0034 	ldr	r0, [pc, #52]	; 4f9c <pinMode+0x260>
    4f64:	e08f0000 	add	r0, pc, r0
    4f68:	ebfff79a 	bl	2dd8 <usingGpioMemCheck.part.1>
    4f6c:	e59f002c 	ldr	r0, [pc, #44]	; 4fa0 <pinMode+0x264>
    4f70:	e08f0000 	add	r0, pc, r0
    4f74:	ebfff797 	bl	2dd8 <usingGpioMemCheck.part.1>
    4f78:	00017be4 	.word	0x00017be4
    4f7c:	00017510 	.word	0x00017510
    4f80:	000059c0 	.word	0x000059c0
    4f84:	00017b78 	.word	0x00017b78
    4f88:	00017b04 	.word	0x00017b04
    4f8c:	000186a0 	.word	0x000186a0
    4f90:	00017a8c 	.word	0x00017a8c
    4f94:	00017a48 	.word	0x00017a48
    4f98:	00006218 	.word	0x00006218
    4f9c:	00006220 	.word	0x00006220
    4fa0:	00006208 	.word	0x00006208

00004fa4 <pullUpDnControl>:
    4fa4:	e59f3148 	ldr	r3, [pc, #328]	; 50f4 <pullUpDnControl+0x150>
    4fa8:	e92d4070 	push	{r4, r5, r6, lr}
    4fac:	e08f3003 	add	r3, pc, r3
    4fb0:	e5932028 	ldr	r2, [r3, #40]	; 0x28
    4fb4:	e3520000 	cmp	r2, #0
    4fb8:	0a00004a 	beq	50e8 <pullUpDnControl+0x144>
    4fbc:	e3d0203f 	bics	r2, r0, #63	; 0x3f
    4fc0:	e1a06001 	mov	r6, r1
    4fc4:	e1a04000 	mov	r4, r0
    4fc8:	1a00003b 	bne	50bc <pullUpDnControl+0x118>
    4fcc:	e59f2124 	ldr	r2, [pc, #292]	; 50f8 <pullUpDnControl+0x154>
    4fd0:	e08f2002 	add	r2, pc, r2
    4fd4:	e5922004 	ldr	r2, [r2, #4]
    4fd8:	e3520000 	cmp	r2, #0
    4fdc:	1a000017 	bne	5040 <pullUpDnControl+0x9c>
    4fe0:	e5933010 	ldr	r3, [r3, #16]
    4fe4:	e7934100 	ldr	r4, [r3, r0, lsl #2]
    4fe8:	e59f510c 	ldr	r5, [pc, #268]	; 50fc <pullUpDnControl+0x158>
    4fec:	e08f5005 	add	r5, pc, r5
    4ff0:	e595314c 	ldr	r3, [r5, #332]	; 0x14c
    4ff4:	e3530039 	cmp	r3, #57	; 0x39
    4ff8:	1a000015 	bne	5054 <pullUpDnControl+0xb0>
    4ffc:	e3560002 	cmp	r6, #2
    5000:	88bd8070 	pophi	{r4, r5, r6, pc}
    5004:	e59f10f4 	ldr	r1, [pc, #244]	; 5100 <pullUpDnControl+0x15c>
    5008:	e595001c 	ldr	r0, [r5, #28]
    500c:	e1a03244 	asr	r3, r4, #4
    5010:	e2833039 	add	r3, r3, #57	; 0x39
    5014:	e08f1001 	add	r1, pc, r1
    5018:	e1a04084 	lsl	r4, r4, #1
    501c:	e0811106 	add	r1, r1, r6, lsl #2
    5020:	e204201e 	and	r2, r4, #30
    5024:	e3a0c003 	mov	ip, #3
    5028:	e7904103 	ldr	r4, [r0, r3, lsl #2]
    502c:	e5911278 	ldr	r1, [r1, #632]	; 0x278
    5030:	e1c4421c 	bic	r4, r4, ip, lsl r2
    5034:	e1844211 	orr	r4, r4, r1, lsl r2
    5038:	e7804103 	str	r4, [r0, r3, lsl #2]
    503c:	e8bd8070 	pop	{r4, r5, r6, pc}
    5040:	e3520003 	cmp	r2, #3
    5044:	0a000024 	beq	50dc <pullUpDnControl+0x138>
    5048:	e3520001 	cmp	r2, #1
    504c:	18bd8070 	popne	{r4, r5, r6, pc}
    5050:	eaffffe4 	b	4fe8 <pullUpDnControl+0x44>
    5054:	e595301c 	ldr	r3, [r5, #28]
    5058:	e2066003 	and	r6, r6, #3
    505c:	e3a00005 	mov	r0, #5
    5060:	e5836094 	str	r6, [r3, #148]	; 0x94
    5064:	ebfff5c7 	bl	2788 <delayMicroseconds@plt>
    5068:	e59f1094 	ldr	r1, [pc, #148]	; 5104 <pullUpDnControl+0x160>
    506c:	e204001f 	and	r0, r4, #31
    5070:	e08f1001 	add	r1, pc, r1
    5074:	e0811004 	add	r1, r1, r4
    5078:	e3a03001 	mov	r3, #1
    507c:	e5d14284 	ldrb	r4, [r1, #644]	; 0x284
    5080:	e595201c 	ldr	r2, [r5, #28]
    5084:	e1a03013 	lsl	r3, r3, r0
    5088:	e3a00005 	mov	r0, #5
    508c:	e7823104 	str	r3, [r2, r4, lsl #2]
    5090:	ebfff5bc 	bl	2788 <delayMicroseconds@plt>
    5094:	e595301c 	ldr	r3, [r5, #28]
    5098:	e3a06000 	mov	r6, #0
    509c:	e3a00005 	mov	r0, #5
    50a0:	e5836094 	str	r6, [r3, #148]	; 0x94
    50a4:	ebfff5b7 	bl	2788 <delayMicroseconds@plt>
    50a8:	e595301c 	ldr	r3, [r5, #28]
    50ac:	e3a00005 	mov	r0, #5
    50b0:	e7836104 	str	r6, [r3, r4, lsl #2]
    50b4:	e8bd4070 	pop	{r4, r5, r6, lr}
    50b8:	eafff5b2 	b	2788 <delayMicroseconds@plt>
    50bc:	ebfff5ba 	bl	27ac <wiringPiFindNode@plt>
    50c0:	e2503000 	subs	r3, r0, #0
    50c4:	08bd8070 	popeq	{r4, r5, r6, pc}
    50c8:	e1a02006 	mov	r2, r6
    50cc:	e1a01004 	mov	r1, r4
    50d0:	e5933020 	ldr	r3, [r3, #32]
    50d4:	e8bd4070 	pop	{r4, r5, r6, lr}
    50d8:	e12fff13 	bx	r3
    50dc:	e5933014 	ldr	r3, [r3, #20]
    50e0:	e7934100 	ldr	r4, [r3, r0, lsl #2]
    50e4:	eaffffbf 	b	4fe8 <pullUpDnControl+0x44>
    50e8:	e59f0018 	ldr	r0, [pc, #24]	; 5108 <pullUpDnControl+0x164>
    50ec:	e08f0000 	add	r0, pc, r0
    50f0:	ebfff729 	bl	2d9c <setupCheck.part.0>
    50f4:	0001797c 	.word	0x0001797c
    50f8:	000172a8 	.word	0x000172a8
    50fc:	0001793c 	.word	0x0001793c
    5100:	00005744 	.word	0x00005744
    5104:	000056e8 	.word	0x000056e8
    5108:	000060a8 	.word	0x000060a8

0000510c <millis>:
    510c:	e52de004 	push	{lr}		; (str lr, [sp, #-4]!)
    5110:	e24dd00c 	sub	sp, sp, #12
    5114:	e1a0100d 	mov	r1, sp
    5118:	e3a00004 	mov	r0, #4
    511c:	ebfff665 	bl	2ab8 <clock_gettime@plt>
    5120:	e59d3004 	ldr	r3, [sp, #4]
    5124:	e59f002c 	ldr	r0, [pc, #44]	; 5158 <millis+0x4c>
    5128:	e59dc000 	ldr	ip, [sp]
    512c:	e1a01fc3 	asr	r1, r3, #31
    5130:	e0c32390 	smull	r2, r3, r0, r3
    5134:	e59f2020 	ldr	r2, [pc, #32]	; 515c <millis+0x50>
    5138:	e3a00ffa 	mov	r0, #1000	; 0x3e8
    513c:	e08f2002 	add	r2, pc, r2
    5140:	e0613943 	rsb	r3, r1, r3, asr #18
    5144:	e023309c 	mla	r3, ip, r0, r3
    5148:	e5920000 	ldr	r0, [r2]
    514c:	e0430000 	sub	r0, r3, r0
    5150:	e28dd00c 	add	sp, sp, #12
    5154:	e49df004 	pop	{pc}		; (ldr pc, [sp], #4)
    5158:	431bde83 	.word	0x431bde83
    515c:	000177ec 	.word	0x000177ec

00005160 <micros>:
    5160:	e52de004 	push	{lr}		; (str lr, [sp, #-4]!)
    5164:	e24dd00c 	sub	sp, sp, #12
    5168:	e1a0100d 	mov	r1, sp
    516c:	e3a00004 	mov	r0, #4
    5170:	ebfff650 	bl	2ab8 <clock_gettime@plt>
    5174:	e59d3004 	ldr	r3, [sp, #4]
    5178:	e59f102c 	ldr	r1, [pc, #44]	; 51ac <micros+0x4c>
    517c:	e59dc000 	ldr	ip, [sp]
    5180:	e59f0028 	ldr	r0, [pc, #40]	; 51b0 <micros+0x50>
    5184:	e0c12391 	smull	r2, r1, r1, r3
    5188:	e59f2024 	ldr	r2, [pc, #36]	; 51b4 <micros+0x54>
    518c:	e1a03fc3 	asr	r3, r3, #31
    5190:	e08f2002 	add	r2, pc, r2
    5194:	e0633341 	rsb	r3, r3, r1, asr #6
    5198:	e023309c 	mla	r3, ip, r0, r3
    519c:	e5920008 	ldr	r0, [r2, #8]
    51a0:	e0430000 	sub	r0, r3, r0
    51a4:	e28dd00c 	add	sp, sp, #12
    51a8:	e49df004 	pop	{pc}		; (ldr pc, [sp], #4)
    51ac:	10624dd3 	.word	0x10624dd3
    51b0:	000f4240 	.word	0x000f4240
    51b4:	00017798 	.word	0x00017798

000051b8 <wiringPiVersion>:
    51b8:	e3a02002 	mov	r2, #2
    51bc:	e3a0303c 	mov	r3, #60	; 0x3c
    51c0:	e5802000 	str	r2, [r0]
    51c4:	e5813000 	str	r3, [r1]
    51c8:	e12fff1e 	bx	lr

000051cc <wiringPiSetup>:
    51cc:	e59f3484 	ldr	r3, [pc, #1156]	; 5658 <wiringPiSetup+0x48c>
    51d0:	e92d4ff0 	push	{r4, r5, r6, r7, r8, r9, sl, fp, lr}
    51d4:	e08f3003 	add	r3, pc, r3
    51d8:	e59f647c 	ldr	r6, [pc, #1148]	; 565c <wiringPiSetup+0x490>
    51dc:	e5935028 	ldr	r5, [r3, #40]	; 0x28
    51e0:	e08f6006 	add	r6, pc, r6
    51e4:	e3550000 	cmp	r5, #0
    51e8:	e24dd024 	sub	sp, sp, #36	; 0x24
    51ec:	13a05000 	movne	r5, #0
    51f0:	0a000002 	beq	5200 <wiringPiSetup+0x34>
    51f4:	e1a00005 	mov	r0, r5
    51f8:	e28dd024 	add	sp, sp, #36	; 0x24
    51fc:	e8bd8ff0 	pop	{r4, r5, r6, r7, r8, r9, sl, fp, pc}
    5200:	e59f0458 	ldr	r0, [pc, #1112]	; 5660 <wiringPiSetup+0x494>
    5204:	e3a07001 	mov	r7, #1
    5208:	e08f0000 	add	r0, pc, r0
    520c:	e5837028 	str	r7, [r3, #40]	; 0x28
    5210:	ebfff580 	bl	2818 <getenv@plt>
    5214:	e59f3448 	ldr	r3, [pc, #1096]	; 5664 <wiringPiSetup+0x498>
    5218:	e7964003 	ldr	r4, [r6, r3]
    521c:	e3500000 	cmp	r0, #0
    5220:	e59f0440 	ldr	r0, [pc, #1088]	; 5668 <wiringPiSetup+0x49c>
    5224:	15847000 	strne	r7, [r4]
    5228:	e08f0000 	add	r0, pc, r0
    522c:	ebfff579 	bl	2818 <getenv@plt>
    5230:	e3500000 	cmp	r0, #0
    5234:	159f3430 	ldrne	r3, [pc, #1072]	; 566c <wiringPiSetup+0x4a0>
    5238:	13a02001 	movne	r2, #1
    523c:	17963003 	ldrne	r3, [r6, r3]
    5240:	15832000 	strne	r2, [r3]
    5244:	e5943000 	ldr	r3, [r4]
    5248:	e3530000 	cmp	r3, #0
    524c:	1a0000c1 	bne	5558 <wiringPiSetup+0x38c>
    5250:	e28d301c 	add	r3, sp, #28
    5254:	e58d3000 	str	r3, [sp]
    5258:	e28d2014 	add	r2, sp, #20
    525c:	e28d3018 	add	r3, sp, #24
    5260:	e28d1010 	add	r1, sp, #16
    5264:	e28d000c 	add	r0, sp, #12
    5268:	ebfff59a 	bl	28d8 <piBoardId@plt>
    526c:	e59d300c 	ldr	r3, [sp, #12]
    5270:	e59f43f8 	ldr	r4, [pc, #1016]	; 5670 <wiringPiSetup+0x4a4>
    5274:	e2432006 	sub	r2, r3, #6
    5278:	e3c22004 	bic	r2, r2, #4
    527c:	e3520000 	cmp	r2, #0
    5280:	13530010 	cmpne	r3, #16
    5284:	e08f4004 	add	r4, pc, r4
    5288:	03a03001 	moveq	r3, #1
    528c:	13a03000 	movne	r3, #0
    5290:	e5843004 	str	r3, [r4, #4]
    5294:	ebfff550 	bl	27dc <piGpioLayout@plt>
    5298:	e3500001 	cmp	r0, #1
    529c:	0a0000a6 	beq	553c <wiringPiSetup+0x370>
    52a0:	e59f33cc 	ldr	r3, [pc, #972]	; 5674 <wiringPiSetup+0x4a8>
    52a4:	e2842b01 	add	r2, r4, #1024	; 0x400
    52a8:	e08f3003 	add	r3, pc, r3
    52ac:	e282200c 	add	r2, r2, #12
    52b0:	e2844fc3 	add	r4, r4, #780	; 0x30c
    52b4:	e5832014 	str	r2, [r3, #20]
    52b8:	e5834010 	str	r4, [r3, #16]
    52bc:	e59d300c 	ldr	r3, [sp, #12]
    52c0:	e3530011 	cmp	r3, #17
    52c4:	908ff103 	addls	pc, pc, r3, lsl #2
    52c8:	ea000087 	b	54ec <wiringPiSetup+0x320>
    52cc:	ea00007f 	b	54d0 <wiringPiSetup+0x304>
    52d0:	ea00007e 	b	54d0 <wiringPiSetup+0x304>
    52d4:	ea00007d 	b	54d0 <wiringPiSetup+0x304>
    52d8:	ea00007c 	b	54d0 <wiringPiSetup+0x304>
    52dc:	ea000082 	b	54ec <wiringPiSetup+0x320>
    52e0:	ea00007a 	b	54d0 <wiringPiSetup+0x304>
    52e4:	ea000079 	b	54d0 <wiringPiSetup+0x304>
    52e8:	ea00007f 	b	54ec <wiringPiSetup+0x320>
    52ec:	ea00007e 	b	54ec <wiringPiSetup+0x320>
    52f0:	ea000076 	b	54d0 <wiringPiSetup+0x304>
    52f4:	ea00007c 	b	54ec <wiringPiSetup+0x320>
    52f8:	ea00007b 	b	54ec <wiringPiSetup+0x320>
    52fc:	ea000073 	b	54d0 <wiringPiSetup+0x304>
    5300:	ea000079 	b	54ec <wiringPiSetup+0x320>
    5304:	ea000078 	b	54ec <wiringPiSetup+0x320>
    5308:	ea000077 	b	54ec <wiringPiSetup+0x320>
    530c:	ea000076 	b	54ec <wiringPiSetup+0x320>
    5310:	eaffffff 	b	5314 <wiringPiSetup+0x148>
    5314:	e59f335c 	ldr	r3, [pc, #860]	; 5678 <wiringPiSetup+0x4ac>
    5318:	e3a014fe 	mov	r1, #-33554432	; 0xfe000000
    531c:	e08f3003 	add	r3, pc, r3
    5320:	e3a02039 	mov	r2, #57	; 0x39
    5324:	e5831148 	str	r1, [r3, #328]	; 0x148
    5328:	e583214c 	str	r2, [r3, #332]	; 0x14c
    532c:	e59f0348 	ldr	r0, [pc, #840]	; 567c <wiringPiSetup+0x4b0>
    5330:	e59f1348 	ldr	r1, [pc, #840]	; 5680 <wiringPiSetup+0x4b4>
    5334:	e08f0000 	add	r0, pc, r0
    5338:	ebfff548 	bl	2860 <open@plt>
    533c:	e2507000 	subs	r7, r0, #0
    5340:	ba000070 	blt	5508 <wiringPiSetup+0x33c>
    5344:	e59f4338 	ldr	r4, [pc, #824]	; 5684 <wiringPiSetup+0x4b8>
    5348:	e58d7000 	str	r7, [sp]
    534c:	e08f4004 	add	r4, pc, r4
    5350:	e3a03001 	mov	r3, #1
    5354:	e5941148 	ldr	r1, [r4, #328]	; 0x148
    5358:	e3a02003 	mov	r2, #3
    535c:	e2811601 	add	r1, r1, #1048576	; 0x100000
    5360:	e5841150 	str	r1, [r4, #336]	; 0x150
    5364:	e5940148 	ldr	r0, [r4, #328]	; 0x148
    5368:	e3a01a01 	mov	r1, #4096	; 0x1000
    536c:	e2800601 	add	r0, r0, #1048576	; 0x100000
    5370:	e0800001 	add	r0, r0, r1
    5374:	e5840154 	str	r0, [r4, #340]	; 0x154
    5378:	e594c148 	ldr	ip, [r4, #328]	; 0x148
    537c:	e3a00000 	mov	r0, #0
    5380:	e28cc602 	add	ip, ip, #2097152	; 0x200000
    5384:	e584c158 	str	ip, [r4, #344]	; 0x158
    5388:	e594c148 	ldr	ip, [r4, #328]	; 0x148
    538c:	e28cca0b 	add	ip, ip, #45056	; 0xb000
    5390:	e584c15c 	str	ip, [r4, #348]	; 0x15c
    5394:	e594c148 	ldr	ip, [r4, #328]	; 0x148
    5398:	e28cc983 	add	ip, ip, #2146304	; 0x20c000
    539c:	e584c160 	str	ip, [r4, #352]	; 0x160
    53a0:	e594c158 	ldr	ip, [r4, #344]	; 0x158
    53a4:	e58dc004 	str	ip, [sp, #4]
    53a8:	ebfff53e 	bl	28a8 <mmap@plt>
    53ac:	e3700001 	cmn	r0, #1
    53b0:	e1a08000 	mov	r8, r0
    53b4:	e584001c 	str	r0, [r4, #28]
    53b8:	0a00006a 	beq	5568 <wiringPiSetup+0x39c>
    53bc:	e5943160 	ldr	r3, [r4, #352]	; 0x160
    53c0:	e3a02003 	mov	r2, #3
    53c4:	e58d3004 	str	r3, [sp, #4]
    53c8:	e58d7000 	str	r7, [sp]
    53cc:	e3a03001 	mov	r3, #1
    53d0:	e3a01a01 	mov	r1, #4096	; 0x1000
    53d4:	e3a00000 	mov	r0, #0
    53d8:	ebfff532 	bl	28a8 <mmap@plt>
    53dc:	e3700001 	cmn	r0, #1
    53e0:	e1a09000 	mov	r9, r0
    53e4:	e5840020 	str	r0, [r4, #32]
    53e8:	0a000068 	beq	5590 <wiringPiSetup+0x3c4>
    53ec:	e5943154 	ldr	r3, [r4, #340]	; 0x154
    53f0:	e3a02003 	mov	r2, #3
    53f4:	e58d3004 	str	r3, [sp, #4]
    53f8:	e58d7000 	str	r7, [sp]
    53fc:	e3a03001 	mov	r3, #1
    5400:	e3a01a01 	mov	r1, #4096	; 0x1000
    5404:	e3a00000 	mov	r0, #0
    5408:	ebfff526 	bl	28a8 <mmap@plt>
    540c:	e3700001 	cmn	r0, #1
    5410:	e1a0a000 	mov	sl, r0
    5414:	e5840024 	str	r0, [r4, #36]	; 0x24
    5418:	0a000066 	beq	55b8 <wiringPiSetup+0x3ec>
    541c:	e5943150 	ldr	r3, [r4, #336]	; 0x150
    5420:	e3a02003 	mov	r2, #3
    5424:	e58d3004 	str	r3, [sp, #4]
    5428:	e58d7000 	str	r7, [sp]
    542c:	e3a03001 	mov	r3, #1
    5430:	e3a01a01 	mov	r1, #4096	; 0x1000
    5434:	e3a00000 	mov	r0, #0
    5438:	ebfff51a 	bl	28a8 <mmap@plt>
    543c:	e3700001 	cmn	r0, #1
    5440:	e1a0b000 	mov	fp, r0
    5444:	e5840018 	str	r0, [r4, #24]
    5448:	0a000064 	beq	55e0 <wiringPiSetup+0x414>
    544c:	e594315c 	ldr	r3, [r4, #348]	; 0x15c
    5450:	e3a02003 	mov	r2, #3
    5454:	e58d3004 	str	r3, [sp, #4]
    5458:	e58d7000 	str	r7, [sp]
    545c:	e3a03001 	mov	r3, #1
    5460:	e3a01a01 	mov	r1, #4096	; 0x1000
    5464:	e3a00000 	mov	r0, #0
    5468:	ebfff50e 	bl	28a8 <mmap@plt>
    546c:	e3700001 	cmn	r0, #1
    5470:	0a000064 	beq	5608 <wiringPiSetup+0x43c>
    5474:	e59f320c 	ldr	r3, [pc, #524]	; 5688 <wiringPiSetup+0x4bc>
    5478:	e3a02d0a 	mov	r2, #640	; 0x280
    547c:	e5802408 	str	r2, [r0, #1032]	; 0x408
    5480:	e3a020f9 	mov	r2, #249	; 0xf9
    5484:	e580241c 	str	r2, [r0, #1052]	; 0x41c
    5488:	e59f21fc 	ldr	r2, [pc, #508]	; 568c <wiringPiSetup+0x4c0>
    548c:	e7963003 	ldr	r3, [r6, r3]
    5490:	e5838000 	str	r8, [r3]
    5494:	e59f31f4 	ldr	r3, [pc, #500]	; 5690 <wiringPiSetup+0x4c4>
    5498:	e7961002 	ldr	r1, [r6, r2]
    549c:	e59f21f0 	ldr	r2, [pc, #496]	; 5694 <wiringPiSetup+0x4c8>
    54a0:	e5819000 	str	r9, [r1]
    54a4:	e7961003 	ldr	r1, [r6, r3]
    54a8:	e59f31e8 	ldr	r3, [pc, #488]	; 5698 <wiringPiSetup+0x4cc>
    54ac:	e581a000 	str	sl, [r1]
    54b0:	e7962002 	ldr	r2, [r6, r2]
    54b4:	e582b000 	str	fp, [r2]
    54b8:	e7963003 	ldr	r3, [r6, r3]
    54bc:	e5830000 	str	r0, [r3]
    54c0:	ebfff617 	bl	2d24 <initialiseEpoch>
    54c4:	e1a00005 	mov	r0, r5
    54c8:	e28dd024 	add	sp, sp, #36	; 0x24
    54cc:	e8bd8ff0 	pop	{r4, r5, r6, r7, r8, r9, sl, fp, pc}
    54d0:	e59f31c4 	ldr	r3, [pc, #452]	; 569c <wiringPiSetup+0x4d0>
    54d4:	e3a01202 	mov	r1, #536870912	; 0x20000000
    54d8:	e08f3003 	add	r3, pc, r3
    54dc:	e3a02025 	mov	r2, #37	; 0x25
    54e0:	e5831148 	str	r1, [r3, #328]	; 0x148
    54e4:	e583214c 	str	r2, [r3, #332]	; 0x14c
    54e8:	eaffff8f 	b	532c <wiringPiSetup+0x160>
    54ec:	e59f31ac 	ldr	r3, [pc, #428]	; 56a0 <wiringPiSetup+0x4d4>
    54f0:	e3a0143f 	mov	r1, #1056964608	; 0x3f000000
    54f4:	e08f3003 	add	r3, pc, r3
    54f8:	e3a02025 	mov	r2, #37	; 0x25
    54fc:	e5831148 	str	r1, [r3, #328]	; 0x148
    5500:	e583214c 	str	r2, [r3, #332]	; 0x14c
    5504:	eaffff88 	b	532c <wiringPiSetup+0x160>
    5508:	e59f0194 	ldr	r0, [pc, #404]	; 56a4 <wiringPiSetup+0x4d8>
    550c:	e59f116c 	ldr	r1, [pc, #364]	; 5680 <wiringPiSetup+0x4b4>
    5510:	e08f0000 	add	r0, pc, r0
    5514:	ebfff4d1 	bl	2860 <open@plt>
    5518:	e2507000 	subs	r7, r0, #0
    551c:	ba000043 	blt	5630 <wiringPiSetup+0x464>
    5520:	e59f3180 	ldr	r3, [pc, #384]	; 56a8 <wiringPiSetup+0x4dc>
    5524:	e3a01000 	mov	r1, #0
    5528:	e08f3003 	add	r3, pc, r3
    552c:	e3a02001 	mov	r2, #1
    5530:	e5831148 	str	r1, [r3, #328]	; 0x148
    5534:	e583202c 	str	r2, [r3, #44]	; 0x2c
    5538:	eaffff81 	b	5344 <wiringPiSetup+0x178>
    553c:	e59f3168 	ldr	r3, [pc, #360]	; 56ac <wiringPiSetup+0x4e0>
    5540:	e2842f43 	add	r2, r4, #268	; 0x10c
    5544:	e08f3003 	add	r3, pc, r3
    5548:	e2844f83 	add	r4, r4, #524	; 0x20c
    554c:	e5832010 	str	r2, [r3, #16]
    5550:	e5834014 	str	r4, [r3, #20]
    5554:	eaffff58 	b	52bc <wiringPiSetup+0xf0>
    5558:	e59f0150 	ldr	r0, [pc, #336]	; 56b0 <wiringPiSetup+0x4e4>
    555c:	e08f0000 	add	r0, pc, r0
    5560:	ebfff4af 	bl	2824 <puts@plt>
    5564:	eaffff39 	b	5250 <wiringPiSetup+0x84>
    5568:	ebfff4e0 	bl	28f0 <__errno_location@plt>
    556c:	e5900000 	ldr	r0, [r0]
    5570:	ebfff4b1 	bl	283c <strerror@plt>
    5574:	e59f1138 	ldr	r1, [pc, #312]	; 56b4 <wiringPiSetup+0x4e8>
    5578:	e08f1001 	add	r1, pc, r1
    557c:	e1a02000 	mov	r2, r0
    5580:	e3a00000 	mov	r0, #0
    5584:	ebfff4af 	bl	2848 <wiringPiFailure@plt>
    5588:	e1a05000 	mov	r5, r0
    558c:	eaffff18 	b	51f4 <wiringPiSetup+0x28>
    5590:	ebfff4d6 	bl	28f0 <__errno_location@plt>
    5594:	e5900000 	ldr	r0, [r0]
    5598:	ebfff4a7 	bl	283c <strerror@plt>
    559c:	e59f1114 	ldr	r1, [pc, #276]	; 56b8 <wiringPiSetup+0x4ec>
    55a0:	e08f1001 	add	r1, pc, r1
    55a4:	e1a02000 	mov	r2, r0
    55a8:	e3a00000 	mov	r0, #0
    55ac:	ebfff4a5 	bl	2848 <wiringPiFailure@plt>
    55b0:	e1a05000 	mov	r5, r0
    55b4:	eaffff0e 	b	51f4 <wiringPiSetup+0x28>
    55b8:	ebfff4cc 	bl	28f0 <__errno_location@plt>
    55bc:	e5900000 	ldr	r0, [r0]
    55c0:	ebfff49d 	bl	283c <strerror@plt>
    55c4:	e59f10f0 	ldr	r1, [pc, #240]	; 56bc <wiringPiSetup+0x4f0>
    55c8:	e08f1001 	add	r1, pc, r1
    55cc:	e1a02000 	mov	r2, r0
    55d0:	e3a00000 	mov	r0, #0
    55d4:	ebfff49b 	bl	2848 <wiringPiFailure@plt>
    55d8:	e1a05000 	mov	r5, r0
    55dc:	eaffff04 	b	51f4 <wiringPiSetup+0x28>
    55e0:	ebfff4c2 	bl	28f0 <__errno_location@plt>
    55e4:	e5900000 	ldr	r0, [r0]
    55e8:	ebfff493 	bl	283c <strerror@plt>
    55ec:	e59f10cc 	ldr	r1, [pc, #204]	; 56c0 <wiringPiSetup+0x4f4>
    55f0:	e08f1001 	add	r1, pc, r1
    55f4:	e1a02000 	mov	r2, r0
    55f8:	e3a00000 	mov	r0, #0
    55fc:	ebfff491 	bl	2848 <wiringPiFailure@plt>
    5600:	e1a05000 	mov	r5, r0
    5604:	eafffefa 	b	51f4 <wiringPiSetup+0x28>
    5608:	ebfff4b8 	bl	28f0 <__errno_location@plt>
    560c:	e5900000 	ldr	r0, [r0]
    5610:	ebfff489 	bl	283c <strerror@plt>
    5614:	e59f10a8 	ldr	r1, [pc, #168]	; 56c4 <wiringPiSetup+0x4f8>
    5618:	e08f1001 	add	r1, pc, r1
    561c:	e1a02000 	mov	r2, r0
    5620:	e3a00000 	mov	r0, #0
    5624:	ebfff487 	bl	2848 <wiringPiFailure@plt>
    5628:	e1a05000 	mov	r5, r0
    562c:	eafffef0 	b	51f4 <wiringPiSetup+0x28>
    5630:	ebfff4ae 	bl	28f0 <__errno_location@plt>
    5634:	e5900000 	ldr	r0, [r0]
    5638:	ebfff47f 	bl	283c <strerror@plt>
    563c:	e59f1084 	ldr	r1, [pc, #132]	; 56c8 <wiringPiSetup+0x4fc>
    5640:	e08f1001 	add	r1, pc, r1
    5644:	e1a02000 	mov	r2, r0
    5648:	e3a00000 	mov	r0, #0
    564c:	ebfff47d 	bl	2848 <wiringPiFailure@plt>
    5650:	e1a05000 	mov	r5, r0
    5654:	eafffee6 	b	51f4 <wiringPiSetup+0x28>
    5658:	00017754 	.word	0x00017754
    565c:	00016e18 	.word	0x00016e18
    5660:	00005f9c 	.word	0x00005f9c
    5664:	00000248 	.word	0x00000248
    5668:	00005f8c 	.word	0x00005f8c
    566c:	00000270 	.word	0x00000270
    5670:	00016ff4 	.word	0x00016ff4
    5674:	00017680 	.word	0x00017680
    5678:	0001760c 	.word	0x0001760c
    567c:	00005eb0 	.word	0x00005eb0
    5680:	00181002 	.word	0x00181002
    5684:	000175dc 	.word	0x000175dc
    5688:	00000250 	.word	0x00000250
    568c:	00000264 	.word	0x00000264
    5690:	0000026c 	.word	0x0000026c
    5694:	0000024c 	.word	0x0000024c
    5698:	00000274 	.word	0x00000274
    569c:	00017450 	.word	0x00017450
    56a0:	00017434 	.word	0x00017434
    56a4:	00005ce0 	.word	0x00005ce0
    56a8:	00017400 	.word	0x00017400
    56ac:	000173e4 	.word	0x000173e4
    56b0:	00005c68 	.word	0x00005c68
    56b4:	00005d4c 	.word	0x00005d4c
    56b8:	00005d4c 	.word	0x00005d4c
    56bc:	00005d4c 	.word	0x00005d4c
    56c0:	00005d4c 	.word	0x00005d4c
    56c4:	00005d4c 	.word	0x00005d4c
    56c8:	00005bc0 	.word	0x00005bc0

000056cc <wiringPiSetupGpio>:
    56cc:	e92d4010 	push	{r4, lr}
    56d0:	ebfff4b3 	bl	29a4 <wiringPiSetup@plt>
    56d4:	e59f303c 	ldr	r3, [pc, #60]	; 5718 <wiringPiSetupGpio+0x4c>
    56d8:	e59f203c 	ldr	r2, [pc, #60]	; 571c <wiringPiSetupGpio+0x50>
    56dc:	e08f3003 	add	r3, pc, r3
    56e0:	e7933002 	ldr	r3, [r3, r2]
    56e4:	e5933000 	ldr	r3, [r3]
    56e8:	e3530000 	cmp	r3, #0
    56ec:	1a000005 	bne	5708 <wiringPiSetupGpio+0x3c>
    56f0:	e59f3028 	ldr	r3, [pc, #40]	; 5720 <wiringPiSetupGpio+0x54>
    56f4:	e3a02001 	mov	r2, #1
    56f8:	e08f3003 	add	r3, pc, r3
    56fc:	e3a00000 	mov	r0, #0
    5700:	e5832004 	str	r2, [r3, #4]
    5704:	e8bd8010 	pop	{r4, pc}
    5708:	e59f0014 	ldr	r0, [pc, #20]	; 5724 <wiringPiSetupGpio+0x58>
    570c:	e08f0000 	add	r0, pc, r0
    5710:	ebfff443 	bl	2824 <puts@plt>
    5714:	eafffff5 	b	56f0 <wiringPiSetupGpio+0x24>
    5718:	0001691c 	.word	0x0001691c
    571c:	00000248 	.word	0x00000248
    5720:	00016b80 	.word	0x00016b80
    5724:	00005c80 	.word	0x00005c80

00005728 <wiringPiSetupPhys>:
    5728:	e92d4010 	push	{r4, lr}
    572c:	ebfff49c 	bl	29a4 <wiringPiSetup@plt>
    5730:	e59f303c 	ldr	r3, [pc, #60]	; 5774 <wiringPiSetupPhys+0x4c>
    5734:	e59f203c 	ldr	r2, [pc, #60]	; 5778 <wiringPiSetupPhys+0x50>
    5738:	e08f3003 	add	r3, pc, r3
    573c:	e7933002 	ldr	r3, [r3, r2]
    5740:	e5933000 	ldr	r3, [r3]
    5744:	e3530000 	cmp	r3, #0
    5748:	1a000005 	bne	5764 <wiringPiSetupPhys+0x3c>
    574c:	e59f3028 	ldr	r3, [pc, #40]	; 577c <wiringPiSetupPhys+0x54>
    5750:	e3a02003 	mov	r2, #3
    5754:	e08f3003 	add	r3, pc, r3
    5758:	e3a00000 	mov	r0, #0
    575c:	e5832004 	str	r2, [r3, #4]
    5760:	e8bd8010 	pop	{r4, pc}
    5764:	e59f0014 	ldr	r0, [pc, #20]	; 5780 <wiringPiSetupPhys+0x58>
    5768:	e08f0000 	add	r0, pc, r0
    576c:	ebfff42c 	bl	2824 <puts@plt>
    5770:	eafffff5 	b	574c <wiringPiSetupPhys+0x24>
    5774:	000168c0 	.word	0x000168c0
    5778:	00000248 	.word	0x00000248
    577c:	00016b24 	.word	0x00016b24
    5780:	00005c48 	.word	0x00005c48

00005784 <wiringPiSetupSys>:
    5784:	e59f3140 	ldr	r3, [pc, #320]	; 58cc <wiringPiSetupSys+0x148>
    5788:	e92d40f0 	push	{r4, r5, r6, r7, lr}
    578c:	e08f3003 	add	r3, pc, r3
    5790:	e59f5138 	ldr	r5, [pc, #312]	; 58d0 <wiringPiSetupSys+0x14c>
    5794:	e5934028 	ldr	r4, [r3, #40]	; 0x28
    5798:	e08f5005 	add	r5, pc, r5
    579c:	e3540000 	cmp	r4, #0
    57a0:	e24dd084 	sub	sp, sp, #132	; 0x84
    57a4:	0a000002 	beq	57b4 <wiringPiSetupSys+0x30>
    57a8:	e3a00000 	mov	r0, #0
    57ac:	e28dd084 	add	sp, sp, #132	; 0x84
    57b0:	e8bd80f0 	pop	{r4, r5, r6, r7, pc}
    57b4:	e59f0118 	ldr	r0, [pc, #280]	; 58d4 <wiringPiSetupSys+0x150>
    57b8:	e3a06001 	mov	r6, #1
    57bc:	e08f0000 	add	r0, pc, r0
    57c0:	e5836028 	str	r6, [r3, #40]	; 0x28
    57c4:	ebfff413 	bl	2818 <getenv@plt>
    57c8:	e59f3108 	ldr	r3, [pc, #264]	; 58d8 <wiringPiSetupSys+0x154>
    57cc:	e7957003 	ldr	r7, [r5, r3]
    57d0:	e3500000 	cmp	r0, #0
    57d4:	e59f0100 	ldr	r0, [pc, #256]	; 58dc <wiringPiSetupSys+0x158>
    57d8:	15876000 	strne	r6, [r7]
    57dc:	e08f0000 	add	r0, pc, r0
    57e0:	ebfff40c 	bl	2818 <getenv@plt>
    57e4:	e3500000 	cmp	r0, #0
    57e8:	159f30f0 	ldrne	r3, [pc, #240]	; 58e0 <wiringPiSetupSys+0x15c>
    57ec:	13a02001 	movne	r2, #1
    57f0:	17953003 	ldrne	r3, [r5, r3]
    57f4:	15832000 	strne	r2, [r3]
    57f8:	e5973000 	ldr	r3, [r7]
    57fc:	e3530000 	cmp	r3, #0
    5800:	1a00002d 	bne	58bc <wiringPiSetupSys+0x138>
    5804:	ebfff3f4 	bl	27dc <piGpioLayout@plt>
    5808:	e3500001 	cmp	r0, #1
    580c:	0a000021 	beq	5898 <wiringPiSetupSys+0x114>
    5810:	e59f30cc 	ldr	r3, [pc, #204]	; 58e4 <wiringPiSetupSys+0x160>
    5814:	e59f20cc 	ldr	r2, [pc, #204]	; 58e8 <wiringPiSetupSys+0x164>
    5818:	e08f3003 	add	r3, pc, r3
    581c:	e08f2002 	add	r2, pc, r2
    5820:	e2831b01 	add	r1, r3, #1024	; 0x400
    5824:	e281100c 	add	r1, r1, #12
    5828:	e2833fc3 	add	r3, r3, #780	; 0x30c
    582c:	e5821014 	str	r1, [r2, #20]
    5830:	e5823010 	str	r3, [r2, #16]
    5834:	e59f50b0 	ldr	r5, [pc, #176]	; 58ec <wiringPiSetupSys+0x168>
    5838:	e59f70b0 	ldr	r7, [pc, #176]	; 58f0 <wiringPiSetupSys+0x16c>
    583c:	e08f5005 	add	r5, pc, r5
    5840:	e1a0600d 	mov	r6, sp
    5844:	e2855004 	add	r5, r5, #4
    5848:	e08f7007 	add	r7, pc, r7
    584c:	e1a02004 	mov	r2, r4
    5850:	e1a01007 	mov	r1, r7
    5854:	e1a00006 	mov	r0, r6
    5858:	ebfff47b 	bl	2a4c <sprintf@plt>
    585c:	e3a01002 	mov	r1, #2
    5860:	e1a00006 	mov	r0, r6
    5864:	ebfff3fd 	bl	2860 <open@plt>
    5868:	e2844001 	add	r4, r4, #1
    586c:	e3540040 	cmp	r4, #64	; 0x40
    5870:	e5a50004 	str	r0, [r5, #4]!
    5874:	1afffff4 	bne	584c <wiringPiSetupSys+0xc8>
    5878:	ebfff529 	bl	2d24 <initialiseEpoch>
    587c:	e59f3070 	ldr	r3, [pc, #112]	; 58f4 <wiringPiSetupSys+0x170>
    5880:	e3a02002 	mov	r2, #2
    5884:	e08f3003 	add	r3, pc, r3
    5888:	e3a00000 	mov	r0, #0
    588c:	e5832004 	str	r2, [r3, #4]
    5890:	e28dd084 	add	sp, sp, #132	; 0x84
    5894:	e8bd80f0 	pop	{r4, r5, r6, r7, pc}
    5898:	e59f3058 	ldr	r3, [pc, #88]	; 58f8 <wiringPiSetupSys+0x174>
    589c:	e59f2058 	ldr	r2, [pc, #88]	; 58fc <wiringPiSetupSys+0x178>
    58a0:	e08f3003 	add	r3, pc, r3
    58a4:	e08f2002 	add	r2, pc, r2
    58a8:	e2831f43 	add	r1, r3, #268	; 0x10c
    58ac:	e2833f83 	add	r3, r3, #524	; 0x20c
    58b0:	e5821010 	str	r1, [r2, #16]
    58b4:	e5823014 	str	r3, [r2, #20]
    58b8:	eaffffdd 	b	5834 <wiringPiSetupSys+0xb0>
    58bc:	e59f003c 	ldr	r0, [pc, #60]	; 5900 <wiringPiSetupSys+0x17c>
    58c0:	e08f0000 	add	r0, pc, r0
    58c4:	ebfff3d6 	bl	2824 <puts@plt>
    58c8:	eaffffcd 	b	5804 <wiringPiSetupSys+0x80>
    58cc:	0001719c 	.word	0x0001719c
    58d0:	00016860 	.word	0x00016860
    58d4:	000059e8 	.word	0x000059e8
    58d8:	00000248 	.word	0x00000248
    58dc:	000059d8 	.word	0x000059d8
    58e0:	00000270 	.word	0x00000270
    58e4:	00016a60 	.word	0x00016a60
    58e8:	0001710c 	.word	0x0001710c
    58ec:	00016a3c 	.word	0x00016a3c
    58f0:	0000588c 	.word	0x0000588c
    58f4:	000169f4 	.word	0x000169f4
    58f8:	000169d8 	.word	0x000169d8
    58fc:	00017084 	.word	0x00017084
    5900:	00005b14 	.word	0x00005b14

00005904 <serialOpen>:
    5904:	e3510c96 	cmp	r1, #38400	; 0x9600
    5908:	e92d4070 	push	{r4, r5, r6, lr}
    590c:	e24dd040 	sub	sp, sp, #64	; 0x40
    5910:	0a0000bf 	beq	5c14 <serialOpen+0x310>
    5914:	da000023 	ble	59a8 <serialOpen+0xa4>
    5918:	e59f32fc 	ldr	r3, [pc, #764]	; 5c1c <serialOpen+0x318>
    591c:	e1510003 	cmp	r1, r3
    5920:	0a0000b9 	beq	5c0c <serialOpen+0x308>
    5924:	da000011 	ble	5970 <serialOpen+0x6c>
    5928:	e59f32f0 	ldr	r3, [pc, #752]	; 5c20 <serialOpen+0x31c>
    592c:	e1510003 	cmp	r1, r3
    5930:	0a0000ad 	beq	5bec <serialOpen+0x2e8>
    5934:	da000046 	ble	5a54 <serialOpen+0x150>
    5938:	e59f32e4 	ldr	r3, [pc, #740]	; 5c24 <serialOpen+0x320>
    593c:	e1510003 	cmp	r1, r3
    5940:	0a00009b 	beq	5bb4 <serialOpen+0x2b0>
    5944:	e59f32dc 	ldr	r3, [pc, #732]	; 5c28 <serialOpen+0x324>
    5948:	e1510003 	cmp	r1, r3
    594c:	0a000092 	beq	5b9c <serialOpen+0x298>
    5950:	e59f32d4 	ldr	r3, [pc, #724]	; 5c2c <serialOpen+0x328>
    5954:	e1510003 	cmp	r1, r3
    5958:	059f42d0 	ldreq	r4, [pc, #720]	; 5c30 <serialOpen+0x32c>
    595c:	0a00004d 	beq	5a98 <serialOpen+0x194>
    5960:	e3e05001 	mvn	r5, #1
    5964:	e1a00005 	mov	r0, r5
    5968:	e28dd040 	add	sp, sp, #64	; 0x40
    596c:	e8bd8070 	pop	{r4, r5, r6, pc}
    5970:	e59f32bc 	ldr	r3, [pc, #700]	; 5c34 <serialOpen+0x330>
    5974:	e1510003 	cmp	r1, r3
    5978:	0a00009d 	beq	5bf4 <serialOpen+0x2f0>
    597c:	da000017 	ble	59e0 <serialOpen+0xdc>
    5980:	e59f32b0 	ldr	r3, [pc, #688]	; 5c38 <serialOpen+0x334>
    5984:	e1510003 	cmp	r1, r3
    5988:	0a000087 	beq	5bac <serialOpen+0x2a8>
    598c:	e3510ae1 	cmp	r1, #921600	; 0xe1000
    5990:	0a000077 	beq	5b74 <serialOpen+0x270>
    5994:	e59f32a0 	ldr	r3, [pc, #672]	; 5c3c <serialOpen+0x338>
    5998:	e1510003 	cmp	r1, r3
    599c:	1affffef 	bne	5960 <serialOpen+0x5c>
    59a0:	e59f4298 	ldr	r4, [pc, #664]	; 5c40 <serialOpen+0x33c>
    59a4:	ea00003b 	b	5a98 <serialOpen+0x194>
    59a8:	e3510f4b 	cmp	r1, #300	; 0x12c
    59ac:	0a000094 	beq	5c04 <serialOpen+0x300>
    59b0:	da00001c 	ble	5a28 <serialOpen+0x124>
    59b4:	e3510e96 	cmp	r1, #2400	; 0x960
    59b8:	0a00008f 	beq	5bfc <serialOpen+0x2f8>
    59bc:	da000010 	ble	5a04 <serialOpen+0x100>
    59c0:	e3510d96 	cmp	r1, #9600	; 0x2580
    59c4:	0a000082 	beq	5bd4 <serialOpen+0x2d0>
    59c8:	e3510c4b 	cmp	r1, #19200	; 0x4b00
    59cc:	0a000066 	beq	5b6c <serialOpen+0x268>
    59d0:	e3510d4b 	cmp	r1, #4800	; 0x12c0
    59d4:	1affffe1 	bne	5960 <serialOpen+0x5c>
    59d8:	e3a0400c 	mov	r4, #12
    59dc:	ea00002d 	b	5a98 <serialOpen+0x194>
    59e0:	e59f325c 	ldr	r3, [pc, #604]	; 5c44 <serialOpen+0x340>
    59e4:	e1510003 	cmp	r1, r3
    59e8:	0a00007b 	beq	5bdc <serialOpen+0x2d8>
    59ec:	e3510be1 	cmp	r1, #230400	; 0x38400
    59f0:	0a000061 	beq	5b7c <serialOpen+0x278>
    59f4:	e3510ce1 	cmp	r1, #57600	; 0xe100
    59f8:	1affffd8 	bne	5960 <serialOpen+0x5c>
    59fc:	e59f4244 	ldr	r4, [pc, #580]	; 5c48 <serialOpen+0x344>
    5a00:	ea000024 	b	5a98 <serialOpen+0x194>
    5a04:	e3510e4b 	cmp	r1, #1200	; 0x4b0
    5a08:	0a00006f 	beq	5bcc <serialOpen+0x2c8>
    5a0c:	e59f3238 	ldr	r3, [pc, #568]	; 5c4c <serialOpen+0x348>
    5a10:	e1510003 	cmp	r1, r3
    5a14:	0a00005a 	beq	5b84 <serialOpen+0x280>
    5a18:	e3510f96 	cmp	r1, #600	; 0x258
    5a1c:	1affffcf 	bne	5960 <serialOpen+0x5c>
    5a20:	e3a04008 	mov	r4, #8
    5a24:	ea00001b 	b	5a98 <serialOpen+0x194>
    5a28:	e351006e 	cmp	r1, #110	; 0x6e
    5a2c:	0a00006c 	beq	5be4 <serialOpen+0x2e0>
    5a30:	da000013 	ble	5a84 <serialOpen+0x180>
    5a34:	e3510096 	cmp	r1, #150	; 0x96
    5a38:	0a000061 	beq	5bc4 <serialOpen+0x2c0>
    5a3c:	e35100c8 	cmp	r1, #200	; 0xc8
    5a40:	0a000053 	beq	5b94 <serialOpen+0x290>
    5a44:	e3510086 	cmp	r1, #134	; 0x86
    5a48:	1affffc4 	bne	5960 <serialOpen+0x5c>
    5a4c:	e3a04004 	mov	r4, #4
    5a50:	ea000010 	b	5a98 <serialOpen+0x194>
    5a54:	e243393d 	sub	r3, r3, #999424	; 0xf4000
    5a58:	e2433d09 	sub	r3, r3, #576	; 0x240
    5a5c:	e1510003 	cmp	r1, r3
    5a60:	0a000055 	beq	5bbc <serialOpen+0x2b8>
    5a64:	e59f31e4 	ldr	r3, [pc, #484]	; 5c50 <serialOpen+0x34c>
    5a68:	e1510003 	cmp	r1, r3
    5a6c:	0a000046 	beq	5b8c <serialOpen+0x288>
    5a70:	e59f31dc 	ldr	r3, [pc, #476]	; 5c54 <serialOpen+0x350>
    5a74:	e1510003 	cmp	r1, r3
    5a78:	1affffb8 	bne	5960 <serialOpen+0x5c>
    5a7c:	e59f41d4 	ldr	r4, [pc, #468]	; 5c58 <serialOpen+0x354>
    5a80:	ea000004 	b	5a98 <serialOpen+0x194>
    5a84:	e3510032 	cmp	r1, #50	; 0x32
    5a88:	0a000045 	beq	5ba4 <serialOpen+0x2a0>
    5a8c:	e351004b 	cmp	r1, #75	; 0x4b
    5a90:	03a04002 	moveq	r4, #2
    5a94:	1affffb1 	bne	5960 <serialOpen+0x5c>
    5a98:	e59f11bc 	ldr	r1, [pc, #444]	; 5c5c <serialOpen+0x358>
    5a9c:	ebfff36f 	bl	2860 <open@plt>
    5aa0:	e3700001 	cmn	r0, #1
    5aa4:	e1a05000 	mov	r5, r0
    5aa8:	0affffad 	beq	5964 <serialOpen+0x60>
    5aac:	e3a02002 	mov	r2, #2
    5ab0:	e28d6004 	add	r6, sp, #4
    5ab4:	e3a01004 	mov	r1, #4
    5ab8:	ebfff392 	bl	2908 <fcntl@plt>
    5abc:	e1a01006 	mov	r1, r6
    5ac0:	e1a00005 	mov	r0, r5
    5ac4:	ebfff428 	bl	2b6c <tcgetattr@plt>
    5ac8:	e1a00006 	mov	r0, r6
    5acc:	ebfff294 	bl	2524 <cfmakeraw@plt>
    5ad0:	e1a01004 	mov	r1, r4
    5ad4:	e1a00006 	mov	r0, r6
    5ad8:	ebfff378 	bl	28c0 <cfsetispeed@plt>
    5adc:	e1a01004 	mov	r1, r4
    5ae0:	e1a00006 	mov	r0, r6
    5ae4:	ebfff324 	bl	277c <cfsetospeed@plt>
    5ae8:	e59d300c 	ldr	r3, [sp, #12]
    5aec:	e59d0010 	ldr	r0, [sp, #16]
    5af0:	e59dc008 	ldr	ip, [sp, #8]
    5af4:	e3c0001b 	bic	r0, r0, #27
    5af8:	e3c33e17 	bic	r3, r3, #368	; 0x170
    5afc:	e3ccc001 	bic	ip, ip, #1
    5b00:	e3a0e064 	mov	lr, #100	; 0x64
    5b04:	e3833e8b 	orr	r3, r3, #2224	; 0x8b0
    5b08:	e1a02006 	mov	r2, r6
    5b0c:	e58d0010 	str	r0, [sp, #16]
    5b10:	e1a0400d 	mov	r4, sp
    5b14:	e3a01000 	mov	r1, #0
    5b18:	e1a00005 	mov	r0, r5
    5b1c:	e58dc008 	str	ip, [sp, #8]
    5b20:	e1cde1ba 	strh	lr, [sp, #26]
    5b24:	e58d300c 	str	r3, [sp, #12]
    5b28:	ebfff325 	bl	27c4 <tcsetattr@plt>
    5b2c:	e1a02004 	mov	r2, r4
    5b30:	e59f1128 	ldr	r1, [pc, #296]	; 5c60 <serialOpen+0x35c>
    5b34:	e1a00005 	mov	r0, r5
    5b38:	ebfff318 	bl	27a0 <ioctl@plt>
    5b3c:	e59d3000 	ldr	r3, [sp]
    5b40:	e1a02004 	mov	r2, r4
    5b44:	e3833006 	orr	r3, r3, #6
    5b48:	e59f1114 	ldr	r1, [pc, #276]	; 5c64 <serialOpen+0x360>
    5b4c:	e1a00005 	mov	r0, r5
    5b50:	e58d3000 	str	r3, [sp]
    5b54:	ebfff311 	bl	27a0 <ioctl@plt>
    5b58:	e59f0108 	ldr	r0, [pc, #264]	; 5c68 <serialOpen+0x364>
    5b5c:	ebfff315 	bl	27b8 <usleep@plt>
    5b60:	e1a00005 	mov	r0, r5
    5b64:	e28dd040 	add	sp, sp, #64	; 0x40
    5b68:	e8bd8070 	pop	{r4, r5, r6, pc}
    5b6c:	e3a0400e 	mov	r4, #14
    5b70:	eaffffc8 	b	5a98 <serialOpen+0x194>
    5b74:	e59f40f0 	ldr	r4, [pc, #240]	; 5c6c <serialOpen+0x368>
    5b78:	eaffffc6 	b	5a98 <serialOpen+0x194>
    5b7c:	e59f40ec 	ldr	r4, [pc, #236]	; 5c70 <serialOpen+0x36c>
    5b80:	eaffffc4 	b	5a98 <serialOpen+0x194>
    5b84:	e3a0400a 	mov	r4, #10
    5b88:	eaffffc2 	b	5a98 <serialOpen+0x194>
    5b8c:	e59f40e0 	ldr	r4, [pc, #224]	; 5c74 <serialOpen+0x370>
    5b90:	eaffffc0 	b	5a98 <serialOpen+0x194>
    5b94:	e3a04006 	mov	r4, #6
    5b98:	eaffffbe 	b	5a98 <serialOpen+0x194>
    5b9c:	e59f40d4 	ldr	r4, [pc, #212]	; 5c78 <serialOpen+0x374>
    5ba0:	eaffffbc 	b	5a98 <serialOpen+0x194>
    5ba4:	e3a04001 	mov	r4, #1
    5ba8:	eaffffba 	b	5a98 <serialOpen+0x194>
    5bac:	e59f40c8 	ldr	r4, [pc, #200]	; 5c7c <serialOpen+0x378>
    5bb0:	eaffffb8 	b	5a98 <serialOpen+0x194>
    5bb4:	e59f40c4 	ldr	r4, [pc, #196]	; 5c80 <serialOpen+0x37c>
    5bb8:	eaffffb6 	b	5a98 <serialOpen+0x194>
    5bbc:	e59f40c0 	ldr	r4, [pc, #192]	; 5c84 <serialOpen+0x380>
    5bc0:	eaffffb4 	b	5a98 <serialOpen+0x194>
    5bc4:	e3a04005 	mov	r4, #5
    5bc8:	eaffffb2 	b	5a98 <serialOpen+0x194>
    5bcc:	e3a04009 	mov	r4, #9
    5bd0:	eaffffb0 	b	5a98 <serialOpen+0x194>
    5bd4:	e3a0400d 	mov	r4, #13
    5bd8:	eaffffae 	b	5a98 <serialOpen+0x194>
    5bdc:	e59f40a4 	ldr	r4, [pc, #164]	; 5c88 <serialOpen+0x384>
    5be0:	eaffffac 	b	5a98 <serialOpen+0x194>
    5be4:	e3a04003 	mov	r4, #3
    5be8:	eaffffaa 	b	5a98 <serialOpen+0x194>
    5bec:	e59f4098 	ldr	r4, [pc, #152]	; 5c8c <serialOpen+0x388>
    5bf0:	eaffffa8 	b	5a98 <serialOpen+0x194>
    5bf4:	e59f4094 	ldr	r4, [pc, #148]	; 5c90 <serialOpen+0x38c>
    5bf8:	eaffffa6 	b	5a98 <serialOpen+0x194>
    5bfc:	e3a0400b 	mov	r4, #11
    5c00:	eaffffa4 	b	5a98 <serialOpen+0x194>
    5c04:	e3a04007 	mov	r4, #7
    5c08:	eaffffa2 	b	5a98 <serialOpen+0x194>
    5c0c:	e59f4080 	ldr	r4, [pc, #128]	; 5c94 <serialOpen+0x390>
    5c10:	eaffffa0 	b	5a98 <serialOpen+0x194>
    5c14:	e3a0400f 	mov	r4, #15
    5c18:	eaffff9e 	b	5a98 <serialOpen+0x194>
    5c1c:	000f4240 	.word	0x000f4240
    5c20:	002625a0 	.word	0x002625a0
    5c24:	003567e0 	.word	0x003567e0
    5c28:	003d0900 	.word	0x003d0900
    5c2c:	002dc6c0 	.word	0x002dc6c0
    5c30:	0000100d 	.word	0x0000100d
    5c34:	00070800 	.word	0x00070800
    5c38:	0008ca00 	.word	0x0008ca00
    5c3c:	0007a120 	.word	0x0007a120
    5c40:	00001005 	.word	0x00001005
    5c44:	0001c200 	.word	0x0001c200
    5c48:	00001001 	.word	0x00001001
    5c4c:	00000708 	.word	0x00000708
    5c50:	001e8480 	.word	0x001e8480
    5c54:	00119400 	.word	0x00119400
    5c58:	00001009 	.word	0x00001009
    5c5c:	00000902 	.word	0x00000902
    5c60:	00005415 	.word	0x00005415
    5c64:	00005418 	.word	0x00005418
    5c68:	00002710 	.word	0x00002710
    5c6c:	00001007 	.word	0x00001007
    5c70:	00001003 	.word	0x00001003
    5c74:	0000100b 	.word	0x0000100b
    5c78:	0000100f 	.word	0x0000100f
    5c7c:	00001006 	.word	0x00001006
    5c80:	0000100e 	.word	0x0000100e
    5c84:	0000100a 	.word	0x0000100a
    5c88:	00001002 	.word	0x00001002
    5c8c:	0000100c 	.word	0x0000100c
    5c90:	00001004 	.word	0x00001004
    5c94:	00001008 	.word	0x00001008

00005c98 <serialFlush>:
    5c98:	e3a01002 	mov	r1, #2
    5c9c:	eafff24a 	b	25cc <tcflush@plt>

00005ca0 <serialClose>:
    5ca0:	eafff39f 	b	2b24 <close@plt>

00005ca4 <serialPutchar>:
    5ca4:	e52de004 	push	{lr}		; (str lr, [sp, #-4]!)
    5ca8:	e24dd00c 	sub	sp, sp, #12
    5cac:	e3a02001 	mov	r2, #1
    5cb0:	e5cd1007 	strb	r1, [sp, #7]
    5cb4:	e28d1007 	add	r1, sp, #7
    5cb8:	ebfff31e 	bl	2938 <write@plt>
    5cbc:	e28dd00c 	add	sp, sp, #12
    5cc0:	e49df004 	pop	{pc}		; (ldr pc, [sp], #4)

00005cc4 <serialPuts>:
    5cc4:	e92d4070 	push	{r4, r5, r6, lr}
    5cc8:	e1a05000 	mov	r5, r0
    5ccc:	e1a00001 	mov	r0, r1
    5cd0:	e1a04001 	mov	r4, r1
    5cd4:	ebfff2f0 	bl	289c <strlen@plt>
    5cd8:	e1a01004 	mov	r1, r4
    5cdc:	e1a02000 	mov	r2, r0
    5ce0:	e1a00005 	mov	r0, r5
    5ce4:	e8bd4070 	pop	{r4, r5, r6, lr}
    5ce8:	eafff312 	b	2938 <write@plt>

00005cec <serialPrintf>:
    5cec:	e92d000e 	push	{r1, r2, r3}
    5cf0:	e92d4030 	push	{r4, r5, lr}
    5cf4:	e24ddb01 	sub	sp, sp, #1024	; 0x400
    5cf8:	e24dd008 	sub	sp, sp, #8
    5cfc:	e28dce41 	add	ip, sp, #1040	; 0x410
    5d00:	e28cc008 	add	ip, ip, #8
    5d04:	e28d4008 	add	r4, sp, #8
    5d08:	e1a05000 	mov	r5, r0
    5d0c:	e1a0300c 	mov	r3, ip
    5d10:	e59d2414 	ldr	r2, [sp, #1044]	; 0x414
    5d14:	e1a00004 	mov	r0, r4
    5d18:	e59f1024 	ldr	r1, [pc, #36]	; 5d44 <serialPrintf+0x58>
    5d1c:	e58dc004 	str	ip, [sp, #4]
    5d20:	ebfff34f 	bl	2a64 <vsnprintf@plt>
    5d24:	e1a01004 	mov	r1, r4
    5d28:	e1a00005 	mov	r0, r5
    5d2c:	ebfff328 	bl	29d4 <serialPuts@plt>
    5d30:	e28ddb01 	add	sp, sp, #1024	; 0x400
    5d34:	e28dd008 	add	sp, sp, #8
    5d38:	e8bd4030 	pop	{r4, r5, lr}
    5d3c:	e28dd00c 	add	sp, sp, #12
    5d40:	e12fff1e 	bx	lr
    5d44:	000003ff 	.word	0x000003ff

00005d48 <serialDataAvail>:
    5d48:	e52de004 	push	{lr}		; (str lr, [sp, #-4]!)
    5d4c:	e24dd00c 	sub	sp, sp, #12
    5d50:	e28d2004 	add	r2, sp, #4
    5d54:	e59f1010 	ldr	r1, [pc, #16]	; 5d6c <serialDataAvail+0x24>
    5d58:	ebfff290 	bl	27a0 <ioctl@plt>
    5d5c:	e3700001 	cmn	r0, #1
    5d60:	159d0004 	ldrne	r0, [sp, #4]
    5d64:	e28dd00c 	add	sp, sp, #12
    5d68:	e49df004 	pop	{pc}		; (ldr pc, [sp], #4)
    5d6c:	0000541b 	.word	0x0000541b

00005d70 <serialGetchar>:
    5d70:	e52de004 	push	{lr}		; (str lr, [sp, #-4]!)
    5d74:	e24dd00c 	sub	sp, sp, #12
    5d78:	e3a02001 	mov	r2, #1
    5d7c:	e28d1007 	add	r1, sp, #7
    5d80:	ebfff20b 	bl	25b4 <read@plt>
    5d84:	e3500001 	cmp	r0, #1
    5d88:	13e00000 	mvnne	r0, #0
    5d8c:	05dd0007 	ldrbeq	r0, [sp, #7]
    5d90:	e28dd00c 	add	sp, sp, #12
    5d94:	e49df004 	pop	{pc}		; (ldr pc, [sp], #4)

00005d98 <shiftIn>:
    5d98:	e3520001 	cmp	r2, #1
    5d9c:	e92d41f0 	push	{r4, r5, r6, r7, r8, lr}
    5da0:	13a05000 	movne	r5, #0
    5da4:	e1a07000 	mov	r7, r0
    5da8:	e1a06001 	mov	r6, r1
    5dac:	11a04005 	movne	r4, r5
    5db0:	0a00000e 	beq	5df0 <shiftIn+0x58>
    5db4:	e3a01001 	mov	r1, #1
    5db8:	e1a00006 	mov	r0, r6
    5dbc:	ebfff232 	bl	268c <digitalWrite@plt>
    5dc0:	e1a00007 	mov	r0, r7
    5dc4:	ebfff206 	bl	25e4 <digitalRead@plt>
    5dc8:	e3a01000 	mov	r1, #0
    5dcc:	e1844510 	orr	r4, r4, r0, lsl r5
    5dd0:	e2855001 	add	r5, r5, #1
    5dd4:	e1a00006 	mov	r0, r6
    5dd8:	ebfff22b 	bl	268c <digitalWrite@plt>
    5ddc:	e3550008 	cmp	r5, #8
    5de0:	e6ef4074 	uxtb	r4, r4
    5de4:	1afffff2 	bne	5db4 <shiftIn+0x1c>
    5de8:	e1a00004 	mov	r0, r4
    5dec:	e8bd81f0 	pop	{r4, r5, r6, r7, r8, pc}
    5df0:	e3a05007 	mov	r5, #7
    5df4:	e3a04000 	mov	r4, #0
    5df8:	e3a01001 	mov	r1, #1
    5dfc:	e1a00006 	mov	r0, r6
    5e00:	ebfff221 	bl	268c <digitalWrite@plt>
    5e04:	e1a00007 	mov	r0, r7
    5e08:	ebfff1f5 	bl	25e4 <digitalRead@plt>
    5e0c:	e3a01000 	mov	r1, #0
    5e10:	e1844510 	orr	r4, r4, r0, lsl r5
    5e14:	e2455001 	sub	r5, r5, #1
    5e18:	e1a00006 	mov	r0, r6
    5e1c:	ebfff21a 	bl	268c <digitalWrite@plt>
    5e20:	e3750001 	cmn	r5, #1
    5e24:	e6ef4074 	uxtb	r4, r4
    5e28:	1afffff2 	bne	5df8 <shiftIn+0x60>
    5e2c:	e1a00004 	mov	r0, r4
    5e30:	e8bd81f0 	pop	{r4, r5, r6, r7, r8, pc}

00005e34 <shiftOut>:
    5e34:	e3520001 	cmp	r2, #1
    5e38:	e92d41f0 	push	{r4, r5, r6, r7, r8, lr}
    5e3c:	e1a06000 	mov	r6, r0
    5e40:	e1a05001 	mov	r5, r1
    5e44:	e1a07003 	mov	r7, r3
    5e48:	13a04000 	movne	r4, #0
    5e4c:	13a08001 	movne	r8, #1
    5e50:	0a00000c 	beq	5e88 <shiftOut+0x54>
    5e54:	e0071418 	and	r1, r7, r8, lsl r4
    5e58:	e1a00006 	mov	r0, r6
    5e5c:	ebfff20a 	bl	268c <digitalWrite@plt>
    5e60:	e3a01001 	mov	r1, #1
    5e64:	e1a00005 	mov	r0, r5
    5e68:	e0844001 	add	r4, r4, r1
    5e6c:	ebfff206 	bl	268c <digitalWrite@plt>
    5e70:	e3a01000 	mov	r1, #0
    5e74:	e1a00005 	mov	r0, r5
    5e78:	ebfff203 	bl	268c <digitalWrite@plt>
    5e7c:	e3540008 	cmp	r4, #8
    5e80:	1afffff3 	bne	5e54 <shiftOut+0x20>
    5e84:	e8bd81f0 	pop	{r4, r5, r6, r7, r8, pc}
    5e88:	e1a08002 	mov	r8, r2
    5e8c:	e3a04007 	mov	r4, #7
    5e90:	e0071418 	and	r1, r7, r8, lsl r4
    5e94:	e1a00006 	mov	r0, r6
    5e98:	ebfff1fb 	bl	268c <digitalWrite@plt>
    5e9c:	e3a01001 	mov	r1, #1
    5ea0:	e1a00005 	mov	r0, r5
    5ea4:	ebfff1f8 	bl	268c <digitalWrite@plt>
    5ea8:	e2444001 	sub	r4, r4, #1
    5eac:	e3a01000 	mov	r1, #0
    5eb0:	e1a00005 	mov	r0, r5
    5eb4:	ebfff1f4 	bl	268c <digitalWrite@plt>
    5eb8:	e3740001 	cmn	r4, #1
    5ebc:	1afffff3 	bne	5e90 <shiftOut+0x5c>
    5ec0:	e8bd81f0 	pop	{r4, r5, r6, r7, r8, pc}

00005ec4 <piHiPri>:
    5ec4:	e92d4010 	push	{r4, lr}
    5ec8:	e24dd008 	sub	sp, sp, #8
    5ecc:	e1a04000 	mov	r4, r0
    5ed0:	e3a03000 	mov	r3, #0
    5ed4:	e3a00002 	mov	r0, #2
    5ed8:	e58d3004 	str	r3, [sp, #4]
    5edc:	ebfff24a 	bl	280c <sched_get_priority_max@plt>
    5ee0:	e1500004 	cmp	r0, r4
    5ee4:	a58d4004 	strge	r4, [sp, #4]
    5ee8:	ba000005 	blt	5f04 <piHiPri+0x40>
    5eec:	e28d2004 	add	r2, sp, #4
    5ef0:	e3a01002 	mov	r1, #2
    5ef4:	e3a00000 	mov	r0, #0
    5ef8:	ebfff318 	bl	2b60 <sched_setscheduler@plt>
    5efc:	e28dd008 	add	sp, sp, #8
    5f00:	e8bd8010 	pop	{r4, pc}
    5f04:	e3a00002 	mov	r0, #2
    5f08:	ebfff23f 	bl	280c <sched_get_priority_max@plt>
    5f0c:	e58d0004 	str	r0, [sp, #4]
    5f10:	eafffff5 	b	5eec <piHiPri+0x28>

00005f14 <piThreadCreate>:
    5f14:	e52de004 	push	{lr}		; (str lr, [sp, #-4]!)
    5f18:	e3a03000 	mov	r3, #0
    5f1c:	e24dd00c 	sub	sp, sp, #12
    5f20:	e1a02000 	mov	r2, r0
    5f24:	e1a01003 	mov	r1, r3
    5f28:	e28d0004 	add	r0, sp, #4
    5f2c:	ebfff22d 	bl	27e8 <pthread_create@plt>
    5f30:	e28dd00c 	add	sp, sp, #12
    5f34:	e49df004 	pop	{pc}		; (ldr pc, [sp], #4)

00005f38 <piLock>:
    5f38:	e59f300c 	ldr	r3, [pc, #12]	; 5f4c <piLock+0x14>
    5f3c:	e0800080 	add	r0, r0, r0, lsl #1
    5f40:	e08f3003 	add	r3, pc, r3
    5f44:	e0830180 	add	r0, r3, r0, lsl #3
    5f48:	eafff1b4 	b	2620 <pthread_mutex_lock@plt>
    5f4c:	00016b5c 	.word	0x00016b5c

00005f50 <piUnlock>:
    5f50:	e59f300c 	ldr	r3, [pc, #12]	; 5f64 <piUnlock+0x14>
    5f54:	e0800080 	add	r0, r0, r0, lsl #1
    5f58:	e08f3003 	add	r3, pc, r3
    5f5c:	e0830180 	add	r0, r3, r0, lsl #3
    5f60:	eafff160 	b	24e8 <pthread_mutex_unlock@plt>
    5f64:	00016b44 	.word	0x00016b44

00005f68 <wiringPiSPIGetFd>:
    5f68:	e59f300c 	ldr	r3, [pc, #12]	; 5f7c <wiringPiSPIGetFd+0x14>
    5f6c:	e2000001 	and	r0, r0, #1
    5f70:	e08f3003 	add	r3, pc, r3
    5f74:	e7930100 	ldr	r0, [r3, r0, lsl #2]
    5f78:	e12fff1e 	bx	lr
    5f7c:	00016b8c 	.word	0x00016b8c

00005f80 <wiringPiSPIDataRW>:
    5f80:	e59f3058 	ldr	r3, [pc, #88]	; 5fe0 <wiringPiSPIDataRW+0x60>
    5f84:	e2000001 	and	r0, r0, #1
    5f88:	e08f3003 	add	r3, pc, r3
    5f8c:	e083c100 	add	ip, r3, r0, lsl #2
    5f90:	e52de004 	push	{lr}		; (str lr, [sp, #-4]!)
    5f94:	e24dd024 	sub	sp, sp, #36	; 0x24
    5f98:	e59cc008 	ldr	ip, [ip, #8]
    5f9c:	e58d2010 	str	r2, [sp, #16]
    5fa0:	e3a0e008 	mov	lr, #8
    5fa4:	e58d1000 	str	r1, [sp]
    5fa8:	e58d1008 	str	r1, [sp, #8]
    5fac:	e7930100 	ldr	r0, [r3, r0, lsl #2]
    5fb0:	e1a0200d 	mov	r2, sp
    5fb4:	e3a03000 	mov	r3, #0
    5fb8:	e59f1024 	ldr	r1, [pc, #36]	; 5fe4 <wiringPiSPIDataRW+0x64>
    5fbc:	e58d3018 	str	r3, [sp, #24]
    5fc0:	e58dc014 	str	ip, [sp, #20]
    5fc4:	e58d3004 	str	r3, [sp, #4]
    5fc8:	e58d300c 	str	r3, [sp, #12]
    5fcc:	e58d301c 	str	r3, [sp, #28]
    5fd0:	e5cde01a 	strb	lr, [sp, #26]
    5fd4:	ebfff1f1 	bl	27a0 <ioctl@plt>
    5fd8:	e28dd024 	add	sp, sp, #36	; 0x24
    5fdc:	e49df004 	pop	{pc}		; (ldr pc, [sp], #4)
    5fe0:	00016b74 	.word	0x00016b74
    5fe4:	40206b00 	.word	0x40206b00

00005fe8 <wiringPiSPISetupMode>:
    5fe8:	e92d4030 	push	{r4, r5, lr}
    5fec:	e202c003 	and	ip, r2, #3
    5ff0:	e24dd02c 	sub	sp, sp, #44	; 0x2c
    5ff4:	e59f2158 	ldr	r2, [pc, #344]	; 6154 <wiringPiSPISetupMode+0x16c>
    5ff8:	e28d4008 	add	r4, sp, #8
    5ffc:	e1a03000 	mov	r3, r0
    6000:	e58d1004 	str	r1, [sp, #4]
    6004:	e08f2002 	add	r2, pc, r2
    6008:	e3a0101f 	mov	r1, #31
    600c:	e1a05000 	mov	r5, r0
    6010:	e1a00004 	mov	r0, r4
    6014:	e58dc000 	str	ip, [sp]
    6018:	ebfff237 	bl	28fc <snprintf@plt>
    601c:	e1a00004 	mov	r0, r4
    6020:	e3a01002 	mov	r1, #2
    6024:	ebfff20d 	bl	2860 <open@plt>
    6028:	e2504000 	subs	r4, r0, #0
    602c:	ba00001a 	blt	609c <wiringPiSPISetupMode+0xb4>
    6030:	e59f3120 	ldr	r3, [pc, #288]	; 6158 <wiringPiSPISetupMode+0x170>
    6034:	e59de004 	ldr	lr, [sp, #4]
    6038:	e08f3003 	add	r3, pc, r3
    603c:	e083c105 	add	ip, r3, r5, lsl #2
    6040:	e1a0200d 	mov	r2, sp
    6044:	e59f1110 	ldr	r1, [pc, #272]	; 615c <wiringPiSPISetupMode+0x174>
    6048:	e7834105 	str	r4, [r3, r5, lsl #2]
    604c:	e58ce008 	str	lr, [ip, #8]
    6050:	ebfff1d2 	bl	27a0 <ioctl@plt>
    6054:	e3500000 	cmp	r0, #0
    6058:	ba000027 	blt	60fc <wiringPiSPISetupMode+0x114>
    605c:	e59f20fc 	ldr	r2, [pc, #252]	; 6160 <wiringPiSPISetupMode+0x178>
    6060:	e59f10fc 	ldr	r1, [pc, #252]	; 6164 <wiringPiSPISetupMode+0x17c>
    6064:	e08f2002 	add	r2, pc, r2
    6068:	e1a00004 	mov	r0, r4
    606c:	ebfff1cb 	bl	27a0 <ioctl@plt>
    6070:	e3500000 	cmp	r0, #0
    6074:	ba000014 	blt	60cc <wiringPiSPISetupMode+0xe4>
    6078:	e28d2004 	add	r2, sp, #4
    607c:	e59f10e4 	ldr	r1, [pc, #228]	; 6168 <wiringPiSPISetupMode+0x180>
    6080:	e1a00004 	mov	r0, r4
    6084:	ebfff1c5 	bl	27a0 <ioctl@plt>
    6088:	e3500000 	cmp	r0, #0
    608c:	ba000026 	blt	612c <wiringPiSPISetupMode+0x144>
    6090:	e1a00004 	mov	r0, r4
    6094:	e28dd02c 	add	sp, sp, #44	; 0x2c
    6098:	e8bd8030 	pop	{r4, r5, pc}
    609c:	ebfff213 	bl	28f0 <__errno_location@plt>
    60a0:	e5900000 	ldr	r0, [r0]
    60a4:	ebfff1e4 	bl	283c <strerror@plt>
    60a8:	e59f10bc 	ldr	r1, [pc, #188]	; 616c <wiringPiSPISetupMode+0x184>
    60ac:	e08f1001 	add	r1, pc, r1
    60b0:	e1a02000 	mov	r2, r0
    60b4:	e3a00000 	mov	r0, #0
    60b8:	ebfff1e2 	bl	2848 <wiringPiFailure@plt>
    60bc:	e1a04000 	mov	r4, r0
    60c0:	e1a00004 	mov	r0, r4
    60c4:	e28dd02c 	add	sp, sp, #44	; 0x2c
    60c8:	e8bd8030 	pop	{r4, r5, pc}
    60cc:	ebfff207 	bl	28f0 <__errno_location@plt>
    60d0:	e5900000 	ldr	r0, [r0]
    60d4:	ebfff1d8 	bl	283c <strerror@plt>
    60d8:	e59f1090 	ldr	r1, [pc, #144]	; 6170 <wiringPiSPISetupMode+0x188>
    60dc:	e08f1001 	add	r1, pc, r1
    60e0:	e1a02000 	mov	r2, r0
    60e4:	e3a00000 	mov	r0, #0
    60e8:	ebfff1d6 	bl	2848 <wiringPiFailure@plt>
    60ec:	e1a04000 	mov	r4, r0
    60f0:	e1a00004 	mov	r0, r4
    60f4:	e28dd02c 	add	sp, sp, #44	; 0x2c
    60f8:	e8bd8030 	pop	{r4, r5, pc}
    60fc:	ebfff1fb 	bl	28f0 <__errno_location@plt>
    6100:	e5900000 	ldr	r0, [r0]
    6104:	ebfff1cc 	bl	283c <strerror@plt>
    6108:	e59f1064 	ldr	r1, [pc, #100]	; 6174 <wiringPiSPISetupMode+0x18c>
    610c:	e08f1001 	add	r1, pc, r1
    6110:	e1a02000 	mov	r2, r0
    6114:	e3a00000 	mov	r0, #0
    6118:	ebfff1ca 	bl	2848 <wiringPiFailure@plt>
    611c:	e1a04000 	mov	r4, r0
    6120:	e1a00004 	mov	r0, r4
    6124:	e28dd02c 	add	sp, sp, #44	; 0x2c
    6128:	e8bd8030 	pop	{r4, r5, pc}
    612c:	ebfff1ef 	bl	28f0 <__errno_location@plt>
    6130:	e5900000 	ldr	r0, [r0]
    6134:	ebfff1c0 	bl	283c <strerror@plt>
    6138:	e59f1038 	ldr	r1, [pc, #56]	; 6178 <wiringPiSPISetupMode+0x190>
    613c:	e08f1001 	add	r1, pc, r1
    6140:	e1a02000 	mov	r2, r0
    6144:	e3a00000 	mov	r0, #0
    6148:	ebfff1be 	bl	2848 <wiringPiFailure@plt>
    614c:	e1a04000 	mov	r4, r0
    6150:	eaffffce 	b	6090 <wiringPiSPISetupMode+0xa8>
    6154:	0000556c 	.word	0x0000556c
    6158:	00016ac4 	.word	0x00016ac4
    615c:	40016b01 	.word	0x40016b01
    6160:	0000550a 	.word	0x0000550a
    6164:	40016b03 	.word	0x40016b03
    6168:	40046b04 	.word	0x40046b04
    616c:	000054d4 	.word	0x000054d4
    6170:	000054e4 	.word	0x000054e4
    6174:	00005494 	.word	0x00005494
    6178:	000054a0 	.word	0x000054a0

0000617c <wiringPiSPISetup>:
    617c:	e3a02000 	mov	r2, #0
    6180:	eafff21f 	b	2a04 <wiringPiSPISetupMode@plt>

00006184 <wiringPiI2CRead>:
    6184:	e52de004 	push	{lr}		; (str lr, [sp, #-4]!)
    6188:	e24dd034 	sub	sp, sp, #52	; 0x34
    618c:	e3a03001 	mov	r3, #1
    6190:	e1cd30b0 	strh	r3, [sp]
    6194:	e58d3004 	str	r3, [sp, #4]
    6198:	e1a0200d 	mov	r2, sp
    619c:	e28d300c 	add	r3, sp, #12
    61a0:	e3a01e72 	mov	r1, #1824	; 0x720
    61a4:	e58d3008 	str	r3, [sp, #8]
    61a8:	ebfff17c 	bl	27a0 <ioctl@plt>
    61ac:	e3500000 	cmp	r0, #0
    61b0:	13e00000 	mvnne	r0, #0
    61b4:	05dd000c 	ldrbeq	r0, [sp, #12]
    61b8:	e28dd034 	add	sp, sp, #52	; 0x34
    61bc:	e49df004 	pop	{pc}		; (ldr pc, [sp], #4)

000061c0 <wiringPiI2CReadReg8>:
    61c0:	e52de004 	push	{lr}		; (str lr, [sp, #-4]!)
    61c4:	e24dd034 	sub	sp, sp, #52	; 0x34
    61c8:	e3a0e001 	mov	lr, #1
    61cc:	e5cd1001 	strb	r1, [sp, #1]
    61d0:	e3a0c002 	mov	ip, #2
    61d4:	e28d300c 	add	r3, sp, #12
    61d8:	e1a0200d 	mov	r2, sp
    61dc:	e3a01e72 	mov	r1, #1824	; 0x720
    61e0:	e58d3008 	str	r3, [sp, #8]
    61e4:	e5cde000 	strb	lr, [sp]
    61e8:	e58dc004 	str	ip, [sp, #4]
    61ec:	ebfff16b 	bl	27a0 <ioctl@plt>
    61f0:	e3500000 	cmp	r0, #0
    61f4:	13e00000 	mvnne	r0, #0
    61f8:	05dd000c 	ldrbeq	r0, [sp, #12]
    61fc:	e28dd034 	add	sp, sp, #52	; 0x34
    6200:	e49df004 	pop	{pc}		; (ldr pc, [sp], #4)

00006204 <wiringPiI2CReadReg16>:
    6204:	e52de004 	push	{lr}		; (str lr, [sp, #-4]!)
    6208:	e24dd034 	sub	sp, sp, #52	; 0x34
    620c:	e3a03003 	mov	r3, #3
    6210:	e5cd1001 	strb	r1, [sp, #1]
    6214:	e3a0c001 	mov	ip, #1
    6218:	e58d3004 	str	r3, [sp, #4]
    621c:	e1a0200d 	mov	r2, sp
    6220:	e28d300c 	add	r3, sp, #12
    6224:	e3a01e72 	mov	r1, #1824	; 0x720
    6228:	e5cdc000 	strb	ip, [sp]
    622c:	e58d3008 	str	r3, [sp, #8]
    6230:	ebfff15a 	bl	27a0 <ioctl@plt>
    6234:	e3500000 	cmp	r0, #0
    6238:	13e00000 	mvnne	r0, #0
    623c:	01dd00bc 	ldrheq	r0, [sp, #12]
    6240:	e28dd034 	add	sp, sp, #52	; 0x34
    6244:	e49df004 	pop	{pc}		; (ldr pc, [sp], #4)

00006248 <wiringPiI2CWrite>:
    6248:	e52de004 	push	{lr}		; (str lr, [sp, #-4]!)
    624c:	e24dd014 	sub	sp, sp, #20
    6250:	e3a03000 	mov	r3, #0
    6254:	e5cd1005 	strb	r1, [sp, #5]
    6258:	e3a0c001 	mov	ip, #1
    625c:	e28d2004 	add	r2, sp, #4
    6260:	e3a01e72 	mov	r1, #1824	; 0x720
    6264:	e5cd3004 	strb	r3, [sp, #4]
    6268:	e58d300c 	str	r3, [sp, #12]
    626c:	e58dc008 	str	ip, [sp, #8]
    6270:	ebfff14a 	bl	27a0 <ioctl@plt>
    6274:	e28dd014 	add	sp, sp, #20
    6278:	e49df004 	pop	{pc}		; (ldr pc, [sp], #4)

0000627c <wiringPiI2CWriteReg8>:
    627c:	e52de004 	push	{lr}		; (str lr, [sp, #-4]!)
    6280:	e24dd034 	sub	sp, sp, #52	; 0x34
    6284:	e3a03002 	mov	r3, #2
    6288:	e5cd200c 	strb	r2, [sp, #12]
    628c:	e5cd1001 	strb	r1, [sp, #1]
    6290:	e3a0c000 	mov	ip, #0
    6294:	e58d3004 	str	r3, [sp, #4]
    6298:	e1a0200d 	mov	r2, sp
    629c:	e28d300c 	add	r3, sp, #12
    62a0:	e3a01e72 	mov	r1, #1824	; 0x720
    62a4:	e5cdc000 	strb	ip, [sp]
    62a8:	e58d3008 	str	r3, [sp, #8]
    62ac:	ebfff13b 	bl	27a0 <ioctl@plt>
    62b0:	e28dd034 	add	sp, sp, #52	; 0x34
    62b4:	e49df004 	pop	{pc}		; (ldr pc, [sp], #4)

000062b8 <wiringPiI2CWriteReg16>:
    62b8:	e52de004 	push	{lr}		; (str lr, [sp, #-4]!)
    62bc:	e24dd034 	sub	sp, sp, #52	; 0x34
    62c0:	e3a03003 	mov	r3, #3
    62c4:	e1cd20bc 	strh	r2, [sp, #12]
    62c8:	e5cd1001 	strb	r1, [sp, #1]
    62cc:	e3a0c000 	mov	ip, #0
    62d0:	e58d3004 	str	r3, [sp, #4]
    62d4:	e1a0200d 	mov	r2, sp
    62d8:	e28d300c 	add	r3, sp, #12
    62dc:	e3a01e72 	mov	r1, #1824	; 0x720
    62e0:	e5cdc000 	strb	ip, [sp]
    62e4:	e58d3008 	str	r3, [sp, #8]
    62e8:	ebfff12c 	bl	27a0 <ioctl@plt>
    62ec:	e28dd034 	add	sp, sp, #52	; 0x34
    62f0:	e49df004 	pop	{pc}		; (ldr pc, [sp], #4)

000062f4 <wiringPiI2CSetupInterface>:
    62f4:	e92d4070 	push	{r4, r5, r6, lr}
    62f8:	e1a04001 	mov	r4, r1
    62fc:	e3a01002 	mov	r1, #2
    6300:	ebfff156 	bl	2860 <open@plt>
    6304:	e2505000 	subs	r5, r0, #0
    6308:	ba000006 	blt	6328 <wiringPiI2CSetupInterface+0x34>
    630c:	e1a02004 	mov	r2, r4
    6310:	e59f1058 	ldr	r1, [pc, #88]	; 6370 <wiringPiI2CSetupInterface+0x7c>
    6314:	ebfff121 	bl	27a0 <ioctl@plt>
    6318:	e3500000 	cmp	r0, #0
    631c:	ba00000a 	blt	634c <wiringPiI2CSetupInterface+0x58>
    6320:	e1a00005 	mov	r0, r5
    6324:	e8bd8070 	pop	{r4, r5, r6, pc}
    6328:	ebfff170 	bl	28f0 <__errno_location@plt>
    632c:	e5900000 	ldr	r0, [r0]
    6330:	ebfff141 	bl	283c <strerror@plt>
    6334:	e59f1038 	ldr	r1, [pc, #56]	; 6374 <wiringPiI2CSetupInterface+0x80>
    6338:	e8bd4070 	pop	{r4, r5, r6, lr}
    633c:	e08f1001 	add	r1, pc, r1
    6340:	e1a02000 	mov	r2, r0
    6344:	e3a00000 	mov	r0, #0
    6348:	eafff13e 	b	2848 <wiringPiFailure@plt>
    634c:	ebfff167 	bl	28f0 <__errno_location@plt>
    6350:	e5900000 	ldr	r0, [r0]
    6354:	ebfff138 	bl	283c <strerror@plt>
    6358:	e59f1018 	ldr	r1, [pc, #24]	; 6378 <wiringPiI2CSetupInterface+0x84>
    635c:	e8bd4070 	pop	{r4, r5, r6, lr}
    6360:	e08f1001 	add	r1, pc, r1
    6364:	e1a02000 	mov	r2, r0
    6368:	e3a00000 	mov	r0, #0
    636c:	eafff135 	b	2848 <wiringPiFailure@plt>
    6370:	00000703 	.word	0x00000703
    6374:	000052c0 	.word	0x000052c0
    6378:	000052bc 	.word	0x000052bc

0000637c <wiringPiI2CSetup>:
    637c:	e92d4010 	push	{r4, lr}
    6380:	e1a04000 	mov	r4, r0
    6384:	ebfff114 	bl	27dc <piGpioLayout@plt>
    6388:	e3500001 	cmp	r0, #1
    638c:	0a000004 	beq	63a4 <wiringPiI2CSetup+0x28>
    6390:	e59f0020 	ldr	r0, [pc, #32]	; 63b8 <wiringPiI2CSetup+0x3c>
    6394:	e1a01004 	mov	r1, r4
    6398:	e08f0000 	add	r0, pc, r0
    639c:	e8bd4010 	pop	{r4, lr}
    63a0:	eafff13a 	b	2890 <wiringPiI2CSetupInterface@plt>
    63a4:	e59f0010 	ldr	r0, [pc, #16]	; 63bc <wiringPiI2CSetup+0x40>
    63a8:	e1a01004 	mov	r1, r4
    63ac:	e08f0000 	add	r0, pc, r0
    63b0:	e8bd4010 	pop	{r4, lr}
    63b4:	eafff135 	b	2890 <wiringPiI2CSetupInterface@plt>
    63b8:	000052b4 	.word	0x000052b4
    63bc:	00005294 	.word	0x00005294

000063c0 <softPwmThread>:
    63c0:	e92d41f0 	push	{r4, r5, r6, r7, r8, lr}
    63c4:	e1a04000 	mov	r4, r0
    63c8:	e24dd008 	sub	sp, sp, #8
    63cc:	e3a00002 	mov	r0, #2
    63d0:	ebfff10d 	bl	280c <sched_get_priority_max@plt>
    63d4:	e59f7098 	ldr	r7, [pc, #152]	; 6474 <softPwmThread+0xb4>
    63d8:	e08f7007 	add	r7, pc, r7
    63dc:	e58d0004 	str	r0, [sp, #4]
    63e0:	ebfff0a0 	bl	2668 <pthread_self@plt>
    63e4:	e28d2004 	add	r2, sp, #4
    63e8:	e3a01002 	mov	r1, #2
    63ec:	ebfff1ab 	bl	2aa0 <pthread_setschedparam@plt>
    63f0:	e1a00004 	mov	r0, r4
    63f4:	ebfff07d 	bl	25f0 <free@plt>
    63f8:	e59f3078 	ldr	r3, [pc, #120]	; 6478 <softPwmThread+0xb8>
    63fc:	e3e02000 	mvn	r2, #0
    6400:	e08f3003 	add	r3, pc, r3
    6404:	e3a0005a 	mov	r0, #90	; 0x5a
    6408:	e5936000 	ldr	r6, [r3]
    640c:	e5832000 	str	r2, [r3]
    6410:	ebfff05b 	bl	2584 <piHiPri@plt>
    6414:	e0878106 	add	r8, r7, r6, lsl #2
    6418:	ea00000c 	b	6450 <softPwmThread+0x90>
    641c:	e0855105 	add	r5, r5, r5, lsl #2
    6420:	e0855105 	add	r5, r5, r5, lsl #2
    6424:	e1a00105 	lsl	r0, r5, #2
    6428:	ebfff0d6 	bl	2788 <delayMicroseconds@plt>
    642c:	e3a01000 	mov	r1, #0
    6430:	e1540001 	cmp	r4, r1
    6434:	e1a00006 	mov	r0, r6
    6438:	0a000000 	beq	6440 <softPwmThread+0x80>
    643c:	ebfff092 	bl	268c <digitalWrite@plt>
    6440:	e0844104 	add	r4, r4, r4, lsl #2
    6444:	e0844104 	add	r4, r4, r4, lsl #2
    6448:	e1a00104 	lsl	r0, r4, #2
    644c:	ebfff0cd 	bl	2788 <delayMicroseconds@plt>
    6450:	e7975106 	ldr	r5, [r7, r6, lsl #2]
    6454:	e5984100 	ldr	r4, [r8, #256]	; 0x100
    6458:	e3550000 	cmp	r5, #0
    645c:	e0444005 	sub	r4, r4, r5
    6460:	0affffed 	beq	641c <softPwmThread+0x5c>
    6464:	e3a01001 	mov	r1, #1
    6468:	e1a00006 	mov	r0, r6
    646c:	ebfff086 	bl	268c <digitalWrite@plt>
    6470:	eaffffe9 	b	641c <softPwmThread+0x5c>
    6474:	00016734 	.word	0x00016734
    6478:	00016454 	.word	0x00016454

0000647c <softPwmWrite>:
    647c:	e350003f 	cmp	r0, #63	; 0x3f
    6480:	c12fff1e 	bxgt	lr
    6484:	e3510000 	cmp	r1, #0
    6488:	b3a01000 	movlt	r1, #0
    648c:	ba000005 	blt	64a8 <softPwmWrite+0x2c>
    6490:	e59f3020 	ldr	r3, [pc, #32]	; 64b8 <softPwmWrite+0x3c>
    6494:	e08f3003 	add	r3, pc, r3
    6498:	e0833100 	add	r3, r3, r0, lsl #2
    649c:	e5932100 	ldr	r2, [r3, #256]	; 0x100
    64a0:	e1520001 	cmp	r2, r1
    64a4:	b5931100 	ldrlt	r1, [r3, #256]	; 0x100
    64a8:	e59f300c 	ldr	r3, [pc, #12]	; 64bc <softPwmWrite+0x40>
    64ac:	e08f3003 	add	r3, pc, r3
    64b0:	e7831100 	str	r1, [r3, r0, lsl #2]
    64b4:	e12fff1e 	bx	lr
    64b8:	00016678 	.word	0x00016678
    64bc:	00016660 	.word	0x00016660

000064c0 <softPwmCreate>:
    64c0:	e350003f 	cmp	r0, #63	; 0x3f
    64c4:	e92d4ff0 	push	{r4, r5, r6, r7, r8, r9, sl, fp, lr}
    64c8:	e24dd014 	sub	sp, sp, #20
    64cc:	ca000036 	bgt	65ac <softPwmCreate+0xec>
    64d0:	e59fa0dc 	ldr	sl, [pc, #220]	; 65b4 <softPwmCreate+0xf4>
    64d4:	e1a06100 	lsl	r6, r0, #2
    64d8:	e08fa00a 	add	sl, pc, sl
    64dc:	e08a9006 	add	r9, sl, r6
    64e0:	e3520000 	cmp	r2, #0
    64e4:	e5993100 	ldr	r3, [r9, #256]	; 0x100
    64e8:	c3a0b000 	movgt	fp, #0
    64ec:	d3a0b001 	movle	fp, #1
    64f0:	e3530000 	cmp	r3, #0
    64f4:	13a0b001 	movne	fp, #1
    64f8:	e35b0000 	cmp	fp, #0
    64fc:	1a00002a 	bne	65ac <softPwmCreate+0xec>
    6500:	e1a05000 	mov	r5, r0
    6504:	e3a00004 	mov	r0, #4
    6508:	e1a07002 	mov	r7, r2
    650c:	e1a08001 	mov	r8, r1
    6510:	ebfff0c6 	bl	2830 <malloc@plt>
    6514:	e2503000 	subs	r3, r0, #0
    6518:	e58d3004 	str	r3, [sp, #4]
    651c:	0a000022 	beq	65ac <softPwmCreate+0xec>
    6520:	e1a00005 	mov	r0, r5
    6524:	e1a0100b 	mov	r1, fp
    6528:	ebfff057 	bl	268c <digitalWrite@plt>
    652c:	e1a00005 	mov	r0, r5
    6530:	e3a01001 	mov	r1, #1
    6534:	ebfff10b 	bl	2968 <pinMode@plt>
    6538:	e59f4078 	ldr	r4, [pc, #120]	; 65b8 <softPwmCreate+0xf8>
    653c:	e59d3004 	ldr	r3, [sp, #4]
    6540:	e59f2074 	ldr	r2, [pc, #116]	; 65bc <softPwmCreate+0xfc>
    6544:	e08f4004 	add	r4, pc, r4
    6548:	e5835000 	str	r5, [r3]
    654c:	e1a0100b 	mov	r1, fp
    6550:	e08f2002 	add	r2, pc, r2
    6554:	e28d000c 	add	r0, sp, #12
    6558:	e78a8105 	str	r8, [sl, r5, lsl #2]
    655c:	e5897100 	str	r7, [r9, #256]	; 0x100
    6560:	e5845000 	str	r5, [r4]
    6564:	ebfff09f 	bl	27e8 <pthread_create@plt>
    6568:	e5943000 	ldr	r3, [r4]
    656c:	e3730001 	cmn	r3, #1
    6570:	e1a05000 	mov	r5, r0
    6574:	0a000004 	beq	658c <softPwmCreate+0xcc>
    6578:	e3a00001 	mov	r0, #1
    657c:	ebfff09c 	bl	27f4 <delay@plt>
    6580:	e5943000 	ldr	r3, [r4]
    6584:	e3730001 	cmn	r3, #1
    6588:	1afffffa 	bne	6578 <softPwmCreate+0xb8>
    658c:	e59f302c 	ldr	r3, [pc, #44]	; 65c0 <softPwmCreate+0x100>
    6590:	e59d200c 	ldr	r2, [sp, #12]
    6594:	e08f3003 	add	r3, pc, r3
    6598:	e0833006 	add	r3, r3, r6
    659c:	e5832200 	str	r2, [r3, #512]	; 0x200
    65a0:	e1a00005 	mov	r0, r5
    65a4:	e28dd014 	add	sp, sp, #20
    65a8:	e8bd8ff0 	pop	{r4, r5, r6, r7, r8, r9, sl, fp, pc}
    65ac:	e3e05000 	mvn	r5, #0
    65b0:	eafffffa 	b	65a0 <softPwmCreate+0xe0>
    65b4:	00016634 	.word	0x00016634
    65b8:	00016310 	.word	0x00016310
    65bc:	fffffe68 	.word	0xfffffe68
    65c0:	00016578 	.word	0x00016578

000065c4 <softPwmStop>:
    65c4:	e350003f 	cmp	r0, #63	; 0x3f
    65c8:	c12fff1e 	bxgt	lr
    65cc:	e92d4070 	push	{r4, r5, r6, lr}
    65d0:	e59f5040 	ldr	r5, [pc, #64]	; 6618 <softPwmStop+0x54>
    65d4:	e08f5005 	add	r5, pc, r5
    65d8:	e0855100 	add	r5, r5, r0, lsl #2
    65dc:	e5953100 	ldr	r3, [r5, #256]	; 0x100
    65e0:	e3530000 	cmp	r3, #0
    65e4:	08bd8070 	popeq	{r4, r5, r6, pc}
    65e8:	e1a04000 	mov	r4, r0
    65ec:	e5950200 	ldr	r0, [r5, #512]	; 0x200
    65f0:	ebfff0ca 	bl	2920 <pthread_cancel@plt>
    65f4:	e5950200 	ldr	r0, [r5, #512]	; 0x200
    65f8:	e3a01000 	mov	r1, #0
    65fc:	ebfff106 	bl	2a1c <pthread_join@plt>
    6600:	e3a03000 	mov	r3, #0
    6604:	e1a00004 	mov	r0, r4
    6608:	e5853100 	str	r3, [r5, #256]	; 0x100
    660c:	e1a01003 	mov	r1, r3
    6610:	e8bd4070 	pop	{r4, r5, r6, lr}
    6614:	eafff01c 	b	268c <digitalWrite@plt>
    6618:	00016538 	.word	0x00016538

0000661c <softToneThread>:
    661c:	e92d40f0 	push	{r4, r5, r6, r7, lr}
    6620:	e3a00002 	mov	r0, #2
    6624:	e24dd00c 	sub	sp, sp, #12
    6628:	ebfff077 	bl	280c <sched_get_priority_max@plt>
    662c:	e59f6090 	ldr	r6, [pc, #144]	; 66c4 <softToneThread+0xa8>
    6630:	e59f7090 	ldr	r7, [pc, #144]	; 66c8 <softToneThread+0xac>
    6634:	e08f6006 	add	r6, pc, r6
    6638:	e58d0004 	str	r0, [sp, #4]
    663c:	ebfff009 	bl	2668 <pthread_self@plt>
    6640:	e28d2004 	add	r2, sp, #4
    6644:	e3a01002 	mov	r1, #2
    6648:	ebfff114 	bl	2aa0 <pthread_setschedparam@plt>
    664c:	e59f3078 	ldr	r3, [pc, #120]	; 66cc <softToneThread+0xb0>
    6650:	e3e02000 	mvn	r2, #0
    6654:	e08f3003 	add	r3, pc, r3
    6658:	e3a00032 	mov	r0, #50	; 0x32
    665c:	e5935000 	ldr	r5, [r3]
    6660:	e5832000 	str	r2, [r3]
    6664:	ebffefc6 	bl	2584 <piHiPri@plt>
    6668:	e7964105 	ldr	r4, [r6, r5, lsl #2]
    666c:	e3a00001 	mov	r0, #1
    6670:	e3540000 	cmp	r4, #0
    6674:	1a000004 	bne	668c <softToneThread+0x70>
    6678:	ebfff05d 	bl	27f4 <delay@plt>
    667c:	e7964105 	ldr	r4, [r6, r5, lsl #2]
    6680:	e3a00001 	mov	r0, #1
    6684:	e3540000 	cmp	r4, #0
    6688:	0afffffa 	beq	6678 <softToneThread+0x5c>
    668c:	e1a00005 	mov	r0, r5
    6690:	e3a01001 	mov	r1, #1
    6694:	ebffeffc 	bl	268c <digitalWrite@plt>
    6698:	e1a01004 	mov	r1, r4
    669c:	e1a00007 	mov	r0, r7
    66a0:	eb000f98 	bl	a508 <__divsi3>
    66a4:	e1a04000 	mov	r4, r0
    66a8:	ebfff036 	bl	2788 <delayMicroseconds@plt>
    66ac:	e1a00005 	mov	r0, r5
    66b0:	e3a01000 	mov	r1, #0
    66b4:	ebffeff4 	bl	268c <digitalWrite@plt>
    66b8:	e1a00004 	mov	r0, r4
    66bc:	ebfff031 	bl	2788 <delayMicroseconds@plt>
    66c0:	eaffffe8 	b	6668 <softToneThread+0x4c>
    66c4:	000167d8 	.word	0x000167d8
    66c8:	0007a120 	.word	0x0007a120
    66cc:	00016204 	.word	0x00016204

000066d0 <softToneWrite>:
    66d0:	e59f301c 	ldr	r3, [pc, #28]	; 66f4 <softToneWrite+0x24>
    66d4:	e59f201c 	ldr	r2, [pc, #28]	; 66f8 <softToneWrite+0x28>
    66d8:	e1510003 	cmp	r1, r3
    66dc:	a1a01003 	movge	r1, r3
    66e0:	e08f2002 	add	r2, pc, r2
    66e4:	e200003f 	and	r0, r0, #63	; 0x3f
    66e8:	e1c11fc1 	bic	r1, r1, r1, asr #31
    66ec:	e7821100 	str	r1, [r2, r0, lsl #2]
    66f0:	e12fff1e 	bx	lr
    66f4:	00001388 	.word	0x00001388
    66f8:	0001672c 	.word	0x0001672c

000066fc <softToneCreate>:
    66fc:	e92d4070 	push	{r4, r5, r6, lr}
    6700:	e3a01001 	mov	r1, #1
    6704:	e1a05000 	mov	r5, r0
    6708:	e24dd008 	sub	sp, sp, #8
    670c:	ebfff095 	bl	2968 <pinMode@plt>
    6710:	e1a00005 	mov	r0, r5
    6714:	e3a01000 	mov	r1, #0
    6718:	ebffefdb 	bl	268c <digitalWrite@plt>
    671c:	e59f0088 	ldr	r0, [pc, #136]	; 67ac <softToneCreate+0xb0>
    6720:	e1a06105 	lsl	r6, r5, #2
    6724:	e08f0000 	add	r0, pc, r0
    6728:	e0803006 	add	r3, r0, r6
    672c:	e5932100 	ldr	r2, [r3, #256]	; 0x100
    6730:	e3520000 	cmp	r2, #0
    6734:	1a00001a 	bne	67a4 <softToneCreate+0xa8>
    6738:	e59f4070 	ldr	r4, [pc, #112]	; 67b0 <softToneCreate+0xb4>
    673c:	e7802105 	str	r2, [r0, r5, lsl #2]
    6740:	e1a03002 	mov	r3, r2
    6744:	e1a01002 	mov	r1, r2
    6748:	e59f2064 	ldr	r2, [pc, #100]	; 67b4 <softToneCreate+0xb8>
    674c:	e08f4004 	add	r4, pc, r4
    6750:	e08f2002 	add	r2, pc, r2
    6754:	e28d0004 	add	r0, sp, #4
    6758:	e5845000 	str	r5, [r4]
    675c:	ebfff021 	bl	27e8 <pthread_create@plt>
    6760:	e5943000 	ldr	r3, [r4]
    6764:	e3730001 	cmn	r3, #1
    6768:	e1a05000 	mov	r5, r0
    676c:	0a000004 	beq	6784 <softToneCreate+0x88>
    6770:	e3a00001 	mov	r0, #1
    6774:	ebfff01e 	bl	27f4 <delay@plt>
    6778:	e5943000 	ldr	r3, [r4]
    677c:	e3730001 	cmn	r3, #1
    6780:	1afffffa 	bne	6770 <softToneCreate+0x74>
    6784:	e59f302c 	ldr	r3, [pc, #44]	; 67b8 <softToneCreate+0xbc>
    6788:	e59d2004 	ldr	r2, [sp, #4]
    678c:	e08f3003 	add	r3, pc, r3
    6790:	e0833006 	add	r3, r3, r6
    6794:	e5832100 	str	r2, [r3, #256]	; 0x100
    6798:	e1a00005 	mov	r0, r5
    679c:	e28dd008 	add	sp, sp, #8
    67a0:	e8bd8070 	pop	{r4, r5, r6, pc}
    67a4:	e3e05000 	mvn	r5, #0
    67a8:	eafffffa 	b	6798 <softToneCreate+0x9c>
    67ac:	000166e8 	.word	0x000166e8
    67b0:	0001610c 	.word	0x0001610c
    67b4:	fffffec4 	.word	0xfffffec4
    67b8:	00016680 	.word	0x00016680

000067bc <softToneStop>:
    67bc:	e92d4070 	push	{r4, r5, r6, lr}
    67c0:	e59f4040 	ldr	r4, [pc, #64]	; 6808 <softToneStop+0x4c>
    67c4:	e08f4004 	add	r4, pc, r4
    67c8:	e0844100 	add	r4, r4, r0, lsl #2
    67cc:	e5943100 	ldr	r3, [r4, #256]	; 0x100
    67d0:	e3530000 	cmp	r3, #0
    67d4:	08bd8070 	popeq	{r4, r5, r6, pc}
    67d8:	e1a05000 	mov	r5, r0
    67dc:	e1a00003 	mov	r0, r3
    67e0:	ebfff04e 	bl	2920 <pthread_cancel@plt>
    67e4:	e3a01000 	mov	r1, #0
    67e8:	e5940100 	ldr	r0, [r4, #256]	; 0x100
    67ec:	ebfff08a 	bl	2a1c <pthread_join@plt>
    67f0:	e3a03000 	mov	r3, #0
    67f4:	e1a00005 	mov	r0, r5
    67f8:	e5843100 	str	r3, [r4, #256]	; 0x100
    67fc:	e1a01003 	mov	r1, r3
    6800:	e8bd4070 	pop	{r4, r5, r6, lr}
    6804:	eaffefa0 	b	268c <digitalWrite@plt>
    6808:	00016648 	.word	0x00016648

0000680c <myDigitalWrite>:
    680c:	e92d4070 	push	{r4, r5, r6, lr}
    6810:	e3a03001 	mov	r3, #1
    6814:	e5904000 	ldr	r4, [r0]
    6818:	e3520000 	cmp	r2, #0
    681c:	e0414004 	sub	r4, r1, r4
    6820:	e2044007 	and	r4, r4, #7
    6824:	e5901014 	ldr	r1, [r0, #20]
    6828:	e1a03413 	lsl	r3, r3, r4
    682c:	e1a05000 	mov	r5, r0
    6830:	01c14003 	biceq	r4, r1, r3
    6834:	11834001 	orrne	r4, r3, r1
    6838:	e1a02004 	mov	r2, r4
    683c:	e3a01009 	mov	r1, #9
    6840:	e5900008 	ldr	r0, [r0, #8]
    6844:	ebfff0c2 	bl	2b54 <wiringPiI2CWriteReg8@plt>
    6848:	e5854014 	str	r4, [r5, #20]
    684c:	e8bd8070 	pop	{r4, r5, r6, pc}

00006850 <myDigitalRead>:
    6850:	e5903000 	ldr	r3, [r0]
    6854:	e92d4010 	push	{r4, lr}
    6858:	e0413003 	sub	r3, r1, r3
    685c:	e2033007 	and	r3, r3, #7
    6860:	e3a04001 	mov	r4, #1
    6864:	e3a01009 	mov	r1, #9
    6868:	e5900008 	ldr	r0, [r0, #8]
    686c:	e1a04314 	lsl	r4, r4, r3
    6870:	ebfff015 	bl	28cc <wiringPiI2CReadReg8@plt>
    6874:	e1140000 	tst	r4, r0
    6878:	13a00001 	movne	r0, #1
    687c:	03a00000 	moveq	r0, #0
    6880:	e8bd8010 	pop	{r4, pc}

00006884 <myPullUpDnControl>:
    6884:	e5903000 	ldr	r3, [r0]
    6888:	e92d4070 	push	{r4, r5, r6, lr}
    688c:	e0413003 	sub	r3, r1, r3
    6890:	e3a05001 	mov	r5, #1
    6894:	e1a04000 	mov	r4, r0
    6898:	e3a01006 	mov	r1, #6
    689c:	e5900008 	ldr	r0, [r0, #8]
    68a0:	e1a06002 	mov	r6, r2
    68a4:	e1a05315 	lsl	r5, r5, r3
    68a8:	ebfff007 	bl	28cc <wiringPiI2CReadReg8@plt>
    68ac:	e3560002 	cmp	r6, #2
    68b0:	e3a01006 	mov	r1, #6
    68b4:	01852000 	orreq	r2, r5, r0
    68b8:	11c02005 	bicne	r2, r0, r5
    68bc:	e5940008 	ldr	r0, [r4, #8]
    68c0:	e8bd4070 	pop	{r4, r5, r6, lr}
    68c4:	eafff0a2 	b	2b54 <wiringPiI2CWriteReg8@plt>

000068c8 <myPinMode>:
    68c8:	e5903000 	ldr	r3, [r0]
    68cc:	e92d4070 	push	{r4, r5, r6, lr}
    68d0:	e0413003 	sub	r3, r1, r3
    68d4:	e3a04001 	mov	r4, #1
    68d8:	e1a05000 	mov	r5, r0
    68dc:	e3a01000 	mov	r1, #0
    68e0:	e5900008 	ldr	r0, [r0, #8]
    68e4:	e1a06002 	mov	r6, r2
    68e8:	e1a04314 	lsl	r4, r4, r3
    68ec:	ebffeff6 	bl	28cc <wiringPiI2CReadReg8@plt>
    68f0:	e3560001 	cmp	r6, #1
    68f4:	e3a01000 	mov	r1, #0
    68f8:	01c02004 	biceq	r2, r0, r4
    68fc:	11842000 	orrne	r2, r4, r0
    6900:	e5950008 	ldr	r0, [r5, #8]
    6904:	e8bd4070 	pop	{r4, r5, r6, lr}
    6908:	eafff091 	b	2b54 <wiringPiI2CWriteReg8@plt>

0000690c <mcp23008Setup>:
    690c:	e92d4070 	push	{r4, r5, r6, lr}
    6910:	e1a04000 	mov	r4, r0
    6914:	e1a00001 	mov	r0, r1
    6918:	ebffef6a 	bl	26c8 <wiringPiI2CSetup@plt>
    691c:	e2505000 	subs	r5, r0, #0
    6920:	b3a03000 	movlt	r3, #0
    6924:	ba000017 	blt	6988 <mcp23008Setup+0x7c>
    6928:	e3a02020 	mov	r2, #32
    692c:	e3a01005 	mov	r1, #5
    6930:	ebfff087 	bl	2b54 <wiringPiI2CWriteReg8@plt>
    6934:	e1a00004 	mov	r0, r4
    6938:	e3a01008 	mov	r1, #8
    693c:	ebfff054 	bl	2a94 <wiringPiNewNode@plt>
    6940:	e59f2048 	ldr	r2, [pc, #72]	; 6990 <mcp23008Setup+0x84>
    6944:	e59f3048 	ldr	r3, [pc, #72]	; 6994 <mcp23008Setup+0x88>
    6948:	e59fc048 	ldr	ip, [pc, #72]	; 6998 <mcp23008Setup+0x8c>
    694c:	e59f1048 	ldr	r1, [pc, #72]	; 699c <mcp23008Setup+0x90>
    6950:	e08f3003 	add	r3, pc, r3
    6954:	e08f2002 	add	r2, pc, r2
    6958:	e08fc00c 	add	ip, pc, ip
    695c:	e08f1001 	add	r1, pc, r1
    6960:	e1a04000 	mov	r4, r0
    6964:	e5805008 	str	r5, [r0, #8]
    6968:	e5841020 	str	r1, [r4, #32]
    696c:	e1c422f4 	strd	r2, [r4, #36]	; 0x24
    6970:	e1a00005 	mov	r0, r5
    6974:	e584c01c 	str	ip, [r4, #28]
    6978:	e3a0100a 	mov	r1, #10
    697c:	ebffefd2 	bl	28cc <wiringPiI2CReadReg8@plt>
    6980:	e3a03001 	mov	r3, #1
    6984:	e5840014 	str	r0, [r4, #20]
    6988:	e1a00003 	mov	r0, r3
    698c:	e8bd8070 	pop	{r4, r5, r6, pc}
    6990:	fffffef4 	.word	0xfffffef4
    6994:	fffffeb4 	.word	0xfffffeb4
    6998:	ffffff68 	.word	0xffffff68
    699c:	ffffff20 	.word	0xffffff20

000069a0 <myDigitalWrite>:
    69a0:	e92d4070 	push	{r4, r5, r6, lr}
    69a4:	e1a05000 	mov	r5, r0
    69a8:	e5900000 	ldr	r0, [r0]
    69ac:	e3a03001 	mov	r3, #1
    69b0:	e0411000 	sub	r1, r1, r0
    69b4:	e2010007 	and	r0, r1, #7
    69b8:	e3510007 	cmp	r1, #7
    69bc:	e1a03013 	lsl	r3, r3, r0
    69c0:	ca000009 	bgt	69ec <myDigitalWrite+0x4c>
    69c4:	e5954014 	ldr	r4, [r5, #20]
    69c8:	e3520000 	cmp	r2, #0
    69cc:	01c44003 	biceq	r4, r4, r3
    69d0:	11834004 	orrne	r4, r3, r4
    69d4:	e1a02004 	mov	r2, r4
    69d8:	e3a01000 	mov	r1, #0
    69dc:	e5950008 	ldr	r0, [r5, #8]
    69e0:	ebfff05b 	bl	2b54 <wiringPiI2CWriteReg8@plt>
    69e4:	e5854014 	str	r4, [r5, #20]
    69e8:	e8bd8070 	pop	{r4, r5, r6, pc}
    69ec:	e5954018 	ldr	r4, [r5, #24]
    69f0:	e3520000 	cmp	r2, #0
    69f4:	01c44003 	biceq	r4, r4, r3
    69f8:	11834004 	orrne	r4, r3, r4
    69fc:	e1a02004 	mov	r2, r4
    6a00:	e3a01001 	mov	r1, #1
    6a04:	e5950008 	ldr	r0, [r5, #8]
    6a08:	ebfff051 	bl	2b54 <wiringPiI2CWriteReg8@plt>
    6a0c:	e5854018 	str	r4, [r5, #24]
    6a10:	e8bd8070 	pop	{r4, r5, r6, pc}

00006a14 <myDigitalRead>:
    6a14:	e92d4010 	push	{r4, lr}
    6a18:	e5904000 	ldr	r4, [r0]
    6a1c:	e5900008 	ldr	r0, [r0, #8]
    6a20:	e0414004 	sub	r4, r1, r4
    6a24:	e3540007 	cmp	r4, #7
    6a28:	c3a01001 	movgt	r1, #1
    6a2c:	d3a01000 	movle	r1, #0
    6a30:	c2044007 	andgt	r4, r4, #7
    6a34:	ebffefa4 	bl	28cc <wiringPiI2CReadReg8@plt>
    6a38:	e3a03001 	mov	r3, #1
    6a3c:	e0103413 	ands	r3, r0, r3, lsl r4
    6a40:	13a00001 	movne	r0, #1
    6a44:	03a00000 	moveq	r0, #0
    6a48:	e8bd8010 	pop	{r4, pc}

00006a4c <myPinMode>:
    6a4c:	e92d41f0 	push	{r4, r5, r6, r7, r8, lr}
    6a50:	e1a05000 	mov	r5, r0
    6a54:	e5904000 	ldr	r4, [r0]
    6a58:	e5900008 	ldr	r0, [r0, #8]
    6a5c:	e0413004 	sub	r3, r1, r4
    6a60:	e3530007 	cmp	r3, #7
    6a64:	c3a06007 	movgt	r6, #7
    6a68:	d3a06006 	movle	r6, #6
    6a6c:	c2033007 	andgt	r3, r3, #7
    6a70:	e3a04001 	mov	r4, #1
    6a74:	e1a01006 	mov	r1, r6
    6a78:	e1a07002 	mov	r7, r2
    6a7c:	e1a04314 	lsl	r4, r4, r3
    6a80:	ebffef91 	bl	28cc <wiringPiI2CReadReg8@plt>
    6a84:	e3570001 	cmp	r7, #1
    6a88:	e1a01006 	mov	r1, r6
    6a8c:	01c02004 	biceq	r2, r0, r4
    6a90:	11842000 	orrne	r2, r4, r0
    6a94:	e5950008 	ldr	r0, [r5, #8]
    6a98:	e8bd41f0 	pop	{r4, r5, r6, r7, r8, lr}
    6a9c:	eafff02c 	b	2b54 <wiringPiI2CWriteReg8@plt>

00006aa0 <mcp23016Setup>:
    6aa0:	e92d4070 	push	{r4, r5, r6, lr}
    6aa4:	e1a04000 	mov	r4, r0
    6aa8:	e1a00001 	mov	r0, r1
    6aac:	ebffef05 	bl	26c8 <wiringPiI2CSetup@plt>
    6ab0:	e2505000 	subs	r5, r0, #0
    6ab4:	b3a03000 	movlt	r3, #0
    6ab8:	ba00001c 	blt	6b30 <mcp23016Setup+0x90>
    6abc:	e3a02000 	mov	r2, #0
    6ac0:	e3a0100a 	mov	r1, #10
    6ac4:	ebfff022 	bl	2b54 <wiringPiI2CWriteReg8@plt>
    6ac8:	e3a02000 	mov	r2, #0
    6acc:	e3a0100b 	mov	r1, #11
    6ad0:	e1a00005 	mov	r0, r5
    6ad4:	ebfff01e 	bl	2b54 <wiringPiI2CWriteReg8@plt>
    6ad8:	e1a00004 	mov	r0, r4
    6adc:	e3a01010 	mov	r1, #16
    6ae0:	ebffefeb 	bl	2a94 <wiringPiNewNode@plt>
    6ae4:	e59f204c 	ldr	r2, [pc, #76]	; 6b38 <mcp23016Setup+0x98>
    6ae8:	e59f304c 	ldr	r3, [pc, #76]	; 6b3c <mcp23016Setup+0x9c>
    6aec:	e59f104c 	ldr	r1, [pc, #76]	; 6b40 <mcp23016Setup+0xa0>
    6af0:	e08f3003 	add	r3, pc, r3
    6af4:	e08f2002 	add	r2, pc, r2
    6af8:	e08f1001 	add	r1, pc, r1
    6afc:	e1c022f4 	strd	r2, [r0, #36]	; 0x24
    6b00:	e1a04000 	mov	r4, r0
    6b04:	e580101c 	str	r1, [r0, #28]
    6b08:	e5805008 	str	r5, [r0, #8]
    6b0c:	e3a01002 	mov	r1, #2
    6b10:	e1a00005 	mov	r0, r5
    6b14:	ebffef6c 	bl	28cc <wiringPiI2CReadReg8@plt>
    6b18:	e3a01003 	mov	r1, #3
    6b1c:	e5840014 	str	r0, [r4, #20]
    6b20:	e1a00005 	mov	r0, r5
    6b24:	ebffef68 	bl	28cc <wiringPiI2CReadReg8@plt>
    6b28:	e3a03001 	mov	r3, #1
    6b2c:	e5840018 	str	r0, [r4, #24]
    6b30:	e1a00003 	mov	r0, r3
    6b34:	e8bd8070 	pop	{r4, r5, r6, pc}
    6b38:	ffffff18 	.word	0xffffff18
    6b3c:	fffffea8 	.word	0xfffffea8
    6b40:	ffffff4c 	.word	0xffffff4c

00006b44 <myDigitalWrite>:
    6b44:	e92d4070 	push	{r4, r5, r6, lr}
    6b48:	e1a05000 	mov	r5, r0
    6b4c:	e5900000 	ldr	r0, [r0]
    6b50:	e3a03001 	mov	r3, #1
    6b54:	e0411000 	sub	r1, r1, r0
    6b58:	e2010007 	and	r0, r1, #7
    6b5c:	e3510007 	cmp	r1, #7
    6b60:	e1a03013 	lsl	r3, r3, r0
    6b64:	ca000009 	bgt	6b90 <myDigitalWrite+0x4c>
    6b68:	e5954014 	ldr	r4, [r5, #20]
    6b6c:	e3520000 	cmp	r2, #0
    6b70:	01c44003 	biceq	r4, r4, r3
    6b74:	11834004 	orrne	r4, r3, r4
    6b78:	e1a02004 	mov	r2, r4
    6b7c:	e3a01012 	mov	r1, #18
    6b80:	e5950008 	ldr	r0, [r5, #8]
    6b84:	ebffeff2 	bl	2b54 <wiringPiI2CWriteReg8@plt>
    6b88:	e5854014 	str	r4, [r5, #20]
    6b8c:	e8bd8070 	pop	{r4, r5, r6, pc}
    6b90:	e5954018 	ldr	r4, [r5, #24]
    6b94:	e3520000 	cmp	r2, #0
    6b98:	01c44003 	biceq	r4, r4, r3
    6b9c:	11834004 	orrne	r4, r3, r4
    6ba0:	e1a02004 	mov	r2, r4
    6ba4:	e3a01013 	mov	r1, #19
    6ba8:	e5950008 	ldr	r0, [r5, #8]
    6bac:	ebffefe8 	bl	2b54 <wiringPiI2CWriteReg8@plt>
    6bb0:	e5854018 	str	r4, [r5, #24]
    6bb4:	e8bd8070 	pop	{r4, r5, r6, pc}

00006bb8 <myDigitalRead>:
    6bb8:	e92d4010 	push	{r4, lr}
    6bbc:	e5904000 	ldr	r4, [r0]
    6bc0:	e5900008 	ldr	r0, [r0, #8]
    6bc4:	e0414004 	sub	r4, r1, r4
    6bc8:	e3540007 	cmp	r4, #7
    6bcc:	c3a01013 	movgt	r1, #19
    6bd0:	d3a01012 	movle	r1, #18
    6bd4:	c2044007 	andgt	r4, r4, #7
    6bd8:	ebffef3b 	bl	28cc <wiringPiI2CReadReg8@plt>
    6bdc:	e3a03001 	mov	r3, #1
    6be0:	e0103413 	ands	r3, r0, r3, lsl r4
    6be4:	13a00001 	movne	r0, #1
    6be8:	03a00000 	moveq	r0, #0
    6bec:	e8bd8010 	pop	{r4, pc}

00006bf0 <myPullUpDnControl>:
    6bf0:	e5903000 	ldr	r3, [r0]
    6bf4:	e92d41f0 	push	{r4, r5, r6, r7, r8, lr}
    6bf8:	e0413003 	sub	r3, r1, r3
    6bfc:	e3530007 	cmp	r3, #7
    6c00:	c3a0600d 	movgt	r6, #13
    6c04:	d3a0600c 	movle	r6, #12
    6c08:	c2033007 	andgt	r3, r3, #7
    6c0c:	e3a05001 	mov	r5, #1
    6c10:	e1a04000 	mov	r4, r0
    6c14:	e1a01006 	mov	r1, r6
    6c18:	e5900008 	ldr	r0, [r0, #8]
    6c1c:	e1a07002 	mov	r7, r2
    6c20:	e1a05315 	lsl	r5, r5, r3
    6c24:	ebffef28 	bl	28cc <wiringPiI2CReadReg8@plt>
    6c28:	e3570002 	cmp	r7, #2
    6c2c:	e1a01006 	mov	r1, r6
    6c30:	01852000 	orreq	r2, r5, r0
    6c34:	11c02005 	bicne	r2, r0, r5
    6c38:	e5940008 	ldr	r0, [r4, #8]
    6c3c:	e8bd41f0 	pop	{r4, r5, r6, r7, r8, lr}
    6c40:	eaffefc3 	b	2b54 <wiringPiI2CWriteReg8@plt>

00006c44 <myPinMode>:
    6c44:	e92d41f0 	push	{r4, r5, r6, r7, r8, lr}
    6c48:	e1a05000 	mov	r5, r0
    6c4c:	e5904000 	ldr	r4, [r0]
    6c50:	e5900008 	ldr	r0, [r0, #8]
    6c54:	e0413004 	sub	r3, r1, r4
    6c58:	e3530007 	cmp	r3, #7
    6c5c:	c3a06001 	movgt	r6, #1
    6c60:	d3a06000 	movle	r6, #0
    6c64:	c2033007 	andgt	r3, r3, #7
    6c68:	e3a04001 	mov	r4, #1
    6c6c:	e1a01006 	mov	r1, r6
    6c70:	e1a07002 	mov	r7, r2
    6c74:	e1a04314 	lsl	r4, r4, r3
    6c78:	ebffef13 	bl	28cc <wiringPiI2CReadReg8@plt>
    6c7c:	e3570001 	cmp	r7, #1
    6c80:	e1a01006 	mov	r1, r6
    6c84:	01c02004 	biceq	r2, r0, r4
    6c88:	11842000 	orrne	r2, r4, r0
    6c8c:	e5950008 	ldr	r0, [r5, #8]
    6c90:	e8bd41f0 	pop	{r4, r5, r6, r7, r8, lr}
    6c94:	eaffefae 	b	2b54 <wiringPiI2CWriteReg8@plt>

00006c98 <mcp23017Setup>:
    6c98:	e92d4070 	push	{r4, r5, r6, lr}
    6c9c:	e1a04000 	mov	r4, r0
    6ca0:	e1a00001 	mov	r0, r1
    6ca4:	ebffee87 	bl	26c8 <wiringPiI2CSetup@plt>
    6ca8:	e2505000 	subs	r5, r0, #0
    6cac:	b3a03000 	movlt	r3, #0
    6cb0:	ba00001a 	blt	6d20 <mcp23017Setup+0x88>
    6cb4:	e3a02020 	mov	r2, #32
    6cb8:	e3a0100a 	mov	r1, #10
    6cbc:	ebffefa4 	bl	2b54 <wiringPiI2CWriteReg8@plt>
    6cc0:	e1a00004 	mov	r0, r4
    6cc4:	e3a01010 	mov	r1, #16
    6cc8:	ebffef71 	bl	2a94 <wiringPiNewNode@plt>
    6ccc:	e59f1054 	ldr	r1, [pc, #84]	; 6d28 <mcp23017Setup+0x90>
    6cd0:	e59f2054 	ldr	r2, [pc, #84]	; 6d2c <mcp23017Setup+0x94>
    6cd4:	e59f3054 	ldr	r3, [pc, #84]	; 6d30 <mcp23017Setup+0x98>
    6cd8:	e08f2002 	add	r2, pc, r2
    6cdc:	e08f3003 	add	r3, pc, r3
    6ce0:	e08f1001 	add	r1, pc, r1
    6ce4:	e1a04000 	mov	r4, r0
    6ce8:	e59f0044 	ldr	r0, [pc, #68]	; 6d34 <mcp23017Setup+0x9c>
    6cec:	e1c422f4 	strd	r2, [r4, #36]	; 0x24
    6cf0:	e08f0000 	add	r0, pc, r0
    6cf4:	e5845008 	str	r5, [r4, #8]
    6cf8:	e1c401fc 	strd	r0, [r4, #28]
    6cfc:	e3a01014 	mov	r1, #20
    6d00:	e1a00005 	mov	r0, r5
    6d04:	ebffeef0 	bl	28cc <wiringPiI2CReadReg8@plt>
    6d08:	e3a01015 	mov	r1, #21
    6d0c:	e5840014 	str	r0, [r4, #20]
    6d10:	e1a00005 	mov	r0, r5
    6d14:	ebffeeec 	bl	28cc <wiringPiI2CReadReg8@plt>
    6d18:	e3a03001 	mov	r3, #1
    6d1c:	e5840018 	str	r0, [r4, #24]
    6d20:	e1a00003 	mov	r0, r3
    6d24:	e8bd8070 	pop	{r4, r5, r6, pc}
    6d28:	ffffff08 	.word	0xffffff08
    6d2c:	fffffed8 	.word	0xfffffed8
    6d30:	fffffe60 	.word	0xfffffe60
    6d34:	ffffff4c 	.word	0xffffff4c

00006d38 <myDigitalWrite>:
    6d38:	e92d4030 	push	{r4, r5, lr}
    6d3c:	e3a03001 	mov	r3, #1
    6d40:	e5904000 	ldr	r4, [r0]
    6d44:	e3520000 	cmp	r2, #0
    6d48:	e0414004 	sub	r4, r1, r4
    6d4c:	e2044007 	and	r4, r4, #7
    6d50:	e5901014 	ldr	r1, [r0, #20]
    6d54:	e1a03413 	lsl	r3, r3, r4
    6d58:	01c14003 	biceq	r4, r1, r3
    6d5c:	11834001 	orrne	r4, r3, r1
    6d60:	e5903010 	ldr	r3, [r0, #16]
    6d64:	e24dd00c 	sub	sp, sp, #12
    6d68:	e1a05000 	mov	r5, r0
    6d6c:	e1a03083 	lsl	r3, r3, #1
    6d70:	e203300e 	and	r3, r3, #14
    6d74:	e3a0c009 	mov	ip, #9
    6d78:	e3833040 	orr	r3, r3, #64	; 0x40
    6d7c:	e3a02003 	mov	r2, #3
    6d80:	e28d1004 	add	r1, sp, #4
    6d84:	e5d0000c 	ldrb	r0, [r0, #12]
    6d88:	e5cd4006 	strb	r4, [sp, #6]
    6d8c:	e5cd3004 	strb	r3, [sp, #4]
    6d90:	e5cdc005 	strb	ip, [sp, #5]
    6d94:	ebffeed2 	bl	28e4 <wiringPiSPIDataRW@plt>
    6d98:	e5854014 	str	r4, [r5, #20]
    6d9c:	e28dd00c 	add	sp, sp, #12
    6da0:	e8bd8030 	pop	{r4, r5, pc}

00006da4 <myDigitalRead>:
    6da4:	e5903010 	ldr	r3, [r0, #16]
    6da8:	e92d4010 	push	{r4, lr}
    6dac:	e3a04001 	mov	r4, #1
    6db0:	e590c000 	ldr	ip, [r0]
    6db4:	e1a03413 	lsl	r3, r3, r4
    6db8:	e041c00c 	sub	ip, r1, ip
    6dbc:	e24dd008 	sub	sp, sp, #8
    6dc0:	e20cc007 	and	ip, ip, #7
    6dc4:	e203300e 	and	r3, r3, #14
    6dc8:	e3833041 	orr	r3, r3, #65	; 0x41
    6dcc:	e3a0e009 	mov	lr, #9
    6dd0:	e3a02003 	mov	r2, #3
    6dd4:	e28d1004 	add	r1, sp, #4
    6dd8:	e5d0000c 	ldrb	r0, [r0, #12]
    6ddc:	e5cd3004 	strb	r3, [sp, #4]
    6de0:	e1a04c14 	lsl	r4, r4, ip
    6de4:	e5cde005 	strb	lr, [sp, #5]
    6de8:	ebffeebd 	bl	28e4 <wiringPiSPIDataRW@plt>
    6dec:	e5dd3006 	ldrb	r3, [sp, #6]
    6df0:	e1130004 	tst	r3, r4
    6df4:	13a00001 	movne	r0, #1
    6df8:	03a00000 	moveq	r0, #0
    6dfc:	e28dd008 	add	sp, sp, #8
    6e00:	e8bd8010 	pop	{r4, pc}

00006e04 <myPullUpDnControl>:
    6e04:	e5903010 	ldr	r3, [r0, #16]
    6e08:	e3a0c001 	mov	ip, #1
    6e0c:	e92d40f0 	push	{r4, r5, r6, r7, lr}
    6e10:	e1a03c13 	lsl	r3, r3, ip
    6e14:	e5906000 	ldr	r6, [r0]
    6e18:	e24dd00c 	sub	sp, sp, #12
    6e1c:	e203300e 	and	r3, r3, #14
    6e20:	e1a04000 	mov	r4, r0
    6e24:	e28d5004 	add	r5, sp, #4
    6e28:	e0416006 	sub	r6, r1, r6
    6e2c:	e3833041 	orr	r3, r3, #65	; 0x41
    6e30:	e1a07002 	mov	r7, r2
    6e34:	e1a01005 	mov	r1, r5
    6e38:	e5cd3004 	strb	r3, [sp, #4]
    6e3c:	e3a02003 	mov	r2, #3
    6e40:	e3a03006 	mov	r3, #6
    6e44:	e5d0000c 	ldrb	r0, [r0, #12]
    6e48:	e1a0661c 	lsl	r6, ip, r6
    6e4c:	e5cd3005 	strb	r3, [sp, #5]
    6e50:	ebffeea3 	bl	28e4 <wiringPiSPIDataRW@plt>
    6e54:	e5943010 	ldr	r3, [r4, #16]
    6e58:	e5ddc006 	ldrb	ip, [sp, #6]
    6e5c:	e3570002 	cmp	r7, #2
    6e60:	e1a03083 	lsl	r3, r3, #1
    6e64:	e203300e 	and	r3, r3, #14
    6e68:	0186c00c 	orreq	ip, r6, ip
    6e6c:	11ccc006 	bicne	ip, ip, r6
    6e70:	e3833040 	orr	r3, r3, #64	; 0x40
    6e74:	e3a0e006 	mov	lr, #6
    6e78:	e1a01005 	mov	r1, r5
    6e7c:	e5d4000c 	ldrb	r0, [r4, #12]
    6e80:	e3a02003 	mov	r2, #3
    6e84:	e5cdc006 	strb	ip, [sp, #6]
    6e88:	e5cd3004 	strb	r3, [sp, #4]
    6e8c:	e5cde005 	strb	lr, [sp, #5]
    6e90:	ebffee93 	bl	28e4 <wiringPiSPIDataRW@plt>
    6e94:	e28dd00c 	add	sp, sp, #12
    6e98:	e8bd80f0 	pop	{r4, r5, r6, r7, pc}

00006e9c <myPinMode>:
    6e9c:	e5903010 	ldr	r3, [r0, #16]
    6ea0:	e92d40f0 	push	{r4, r5, r6, r7, lr}
    6ea4:	e3a04001 	mov	r4, #1
    6ea8:	e590c000 	ldr	ip, [r0]
    6eac:	e1a03413 	lsl	r3, r3, r4
    6eb0:	e24dd00c 	sub	sp, sp, #12
    6eb4:	e203300e 	and	r3, r3, #14
    6eb8:	e041c00c 	sub	ip, r1, ip
    6ebc:	e28d6004 	add	r6, sp, #4
    6ec0:	e3833041 	orr	r3, r3, #65	; 0x41
    6ec4:	e1a05000 	mov	r5, r0
    6ec8:	e1a07002 	mov	r7, r2
    6ecc:	e1a01006 	mov	r1, r6
    6ed0:	e5cd3004 	strb	r3, [sp, #4]
    6ed4:	e3a02003 	mov	r2, #3
    6ed8:	e3a03000 	mov	r3, #0
    6edc:	e5d0000c 	ldrb	r0, [r0, #12]
    6ee0:	e1a04c14 	lsl	r4, r4, ip
    6ee4:	e5cd3005 	strb	r3, [sp, #5]
    6ee8:	ebffee7d 	bl	28e4 <wiringPiSPIDataRW@plt>
    6eec:	e5dd3006 	ldrb	r3, [sp, #6]
    6ef0:	e3570001 	cmp	r7, #1
    6ef4:	e3a0c000 	mov	ip, #0
    6ef8:	01c34004 	biceq	r4, r3, r4
    6efc:	11844003 	orrne	r4, r4, r3
    6f00:	e5953010 	ldr	r3, [r5, #16]
    6f04:	e1a01006 	mov	r1, r6
    6f08:	e5d5000c 	ldrb	r0, [r5, #12]
    6f0c:	e1a03083 	lsl	r3, r3, #1
    6f10:	e203300e 	and	r3, r3, #14
    6f14:	e3833040 	orr	r3, r3, #64	; 0x40
    6f18:	e3a02003 	mov	r2, #3
    6f1c:	e5cd4006 	strb	r4, [sp, #6]
    6f20:	e5cd3004 	strb	r3, [sp, #4]
    6f24:	e5cdc005 	strb	ip, [sp, #5]
    6f28:	ebffee6d 	bl	28e4 <wiringPiSPIDataRW@plt>
    6f2c:	e28dd00c 	add	sp, sp, #12
    6f30:	e8bd80f0 	pop	{r4, r5, r6, r7, pc}

00006f34 <mcp23s08Setup>:
    6f34:	e92d43f0 	push	{r4, r5, r6, r7, r8, r9, lr}
    6f38:	e1a06001 	mov	r6, r1
    6f3c:	e24dd00c 	sub	sp, sp, #12
    6f40:	e1a04000 	mov	r4, r0
    6f44:	e59f10c4 	ldr	r1, [pc, #196]	; 7010 <mcp23s08Setup+0xdc>
    6f48:	e1a00006 	mov	r0, r6
    6f4c:	e1a08002 	mov	r8, r2
    6f50:	ebffee8d 	bl	298c <wiringPiSPISetup@plt>
    6f54:	e3500000 	cmp	r0, #0
    6f58:	b3a00000 	movlt	r0, #0
    6f5c:	ba000029 	blt	7008 <mcp23s08Setup+0xd4>
    6f60:	e1a05088 	lsl	r5, r8, #1
    6f64:	e205500e 	and	r5, r5, #14
    6f68:	e3853040 	orr	r3, r5, #64	; 0x40
    6f6c:	e6ef9076 	uxtb	r9, r6
    6f70:	e28d7004 	add	r7, sp, #4
    6f74:	e3a02005 	mov	r2, #5
    6f78:	e1a01007 	mov	r1, r7
    6f7c:	e5cd3004 	strb	r3, [sp, #4]
    6f80:	e5cd2005 	strb	r2, [sp, #5]
    6f84:	e3a03020 	mov	r3, #32
    6f88:	e3a02003 	mov	r2, #3
    6f8c:	e1a00009 	mov	r0, r9
    6f90:	e5cd3006 	strb	r3, [sp, #6]
    6f94:	ebffee52 	bl	28e4 <wiringPiSPIDataRW@plt>
    6f98:	e1a00004 	mov	r0, r4
    6f9c:	e3a01008 	mov	r1, #8
    6fa0:	ebffeebb 	bl	2a94 <wiringPiNewNode@plt>
    6fa4:	e59f2068 	ldr	r2, [pc, #104]	; 7014 <mcp23s08Setup+0xe0>
    6fa8:	e59f3068 	ldr	r3, [pc, #104]	; 7018 <mcp23s08Setup+0xe4>
    6fac:	e59fe068 	ldr	lr, [pc, #104]	; 701c <mcp23s08Setup+0xe8>
    6fb0:	e59fc068 	ldr	ip, [pc, #104]	; 7020 <mcp23s08Setup+0xec>
    6fb4:	e08f2002 	add	r2, pc, r2
    6fb8:	e08f3003 	add	r3, pc, r3
    6fbc:	e08fe00e 	add	lr, pc, lr
    6fc0:	e08fc00c 	add	ip, pc, ip
    6fc4:	e3855041 	orr	r5, r5, #65	; 0x41
    6fc8:	e1a01007 	mov	r1, r7
    6fcc:	e1a04000 	mov	r4, r0
    6fd0:	e580600c 	str	r6, [r0, #12]
    6fd4:	e5808010 	str	r8, [r0, #16]
    6fd8:	e1c422f4 	strd	r2, [r4, #36]	; 0x24
    6fdc:	e584e01c 	str	lr, [r4, #28]
    6fe0:	e584c020 	str	ip, [r4, #32]
    6fe4:	e3a0300a 	mov	r3, #10
    6fe8:	e1a00009 	mov	r0, r9
    6fec:	e3a02003 	mov	r2, #3
    6ff0:	e5cd3005 	strb	r3, [sp, #5]
    6ff4:	e5cd5004 	strb	r5, [sp, #4]
    6ff8:	ebffee39 	bl	28e4 <wiringPiSPIDataRW@plt>
    6ffc:	e5dd3006 	ldrb	r3, [sp, #6]
    7000:	e3a00001 	mov	r0, #1
    7004:	e5843014 	str	r3, [r4, #20]
    7008:	e28dd00c 	add	sp, sp, #12
    700c:	e8bd83f0 	pop	{r4, r5, r6, r7, r8, r9, pc}
    7010:	003d0900 	.word	0x003d0900
    7014:	fffffde8 	.word	0xfffffde8
    7018:	fffffd78 	.word	0xfffffd78
    701c:	fffffed8 	.word	0xfffffed8
    7020:	fffffe3c 	.word	0xfffffe3c

00007024 <myDigitalWrite>:
    7024:	e92d4030 	push	{r4, r5, lr}
    7028:	e1a05000 	mov	r5, r0
    702c:	e5900000 	ldr	r0, [r0]
    7030:	e3a03001 	mov	r3, #1
    7034:	e0411000 	sub	r1, r1, r0
    7038:	e2010007 	and	r0, r1, #7
    703c:	e3510007 	cmp	r1, #7
    7040:	e24dd00c 	sub	sp, sp, #12
    7044:	e1a03013 	lsl	r3, r3, r0
    7048:	ca000012 	bgt	7098 <myDigitalWrite+0x74>
    704c:	e5954014 	ldr	r4, [r5, #20]
    7050:	e3520000 	cmp	r2, #0
    7054:	01c44003 	biceq	r4, r4, r3
    7058:	11834004 	orrne	r4, r3, r4
    705c:	e5953010 	ldr	r3, [r5, #16]
    7060:	e3a0c012 	mov	ip, #18
    7064:	e3a02003 	mov	r2, #3
    7068:	e1a03083 	lsl	r3, r3, #1
    706c:	e203300e 	and	r3, r3, #14
    7070:	e3833040 	orr	r3, r3, #64	; 0x40
    7074:	e28d1004 	add	r1, sp, #4
    7078:	e5d5000c 	ldrb	r0, [r5, #12]
    707c:	e5cd4006 	strb	r4, [sp, #6]
    7080:	e5cd3004 	strb	r3, [sp, #4]
    7084:	e5cdc005 	strb	ip, [sp, #5]
    7088:	ebffee15 	bl	28e4 <wiringPiSPIDataRW@plt>
    708c:	e5854014 	str	r4, [r5, #20]
    7090:	e28dd00c 	add	sp, sp, #12
    7094:	e8bd8030 	pop	{r4, r5, pc}
    7098:	e5954018 	ldr	r4, [r5, #24]
    709c:	e3520000 	cmp	r2, #0
    70a0:	01c44003 	biceq	r4, r4, r3
    70a4:	11834004 	orrne	r4, r3, r4
    70a8:	e5953010 	ldr	r3, [r5, #16]
    70ac:	e3a0c013 	mov	ip, #19
    70b0:	e3a02003 	mov	r2, #3
    70b4:	e1a03083 	lsl	r3, r3, #1
    70b8:	e203300e 	and	r3, r3, #14
    70bc:	e3833040 	orr	r3, r3, #64	; 0x40
    70c0:	e28d1004 	add	r1, sp, #4
    70c4:	e5d5000c 	ldrb	r0, [r5, #12]
    70c8:	e5cd4006 	strb	r4, [sp, #6]
    70cc:	e5cd3004 	strb	r3, [sp, #4]
    70d0:	e5cdc005 	strb	ip, [sp, #5]
    70d4:	ebffee02 	bl	28e4 <wiringPiSPIDataRW@plt>
    70d8:	e5854018 	str	r4, [r5, #24]
    70dc:	e28dd00c 	add	sp, sp, #12
    70e0:	e8bd8030 	pop	{r4, r5, pc}

000070e4 <myDigitalRead>:
    70e4:	e5903010 	ldr	r3, [r0, #16]
    70e8:	e92d4010 	push	{r4, lr}
    70ec:	e24dd008 	sub	sp, sp, #8
    70f0:	e5904000 	ldr	r4, [r0]
    70f4:	e1a03083 	lsl	r3, r3, #1
    70f8:	e0414004 	sub	r4, r1, r4
    70fc:	e3540007 	cmp	r4, #7
    7100:	e203300e 	and	r3, r3, #14
    7104:	c3a0c013 	movgt	ip, #19
    7108:	d3a0c012 	movle	ip, #18
    710c:	e3833041 	orr	r3, r3, #65	; 0x41
    7110:	e3a02003 	mov	r2, #3
    7114:	e28d1004 	add	r1, sp, #4
    7118:	e5d0000c 	ldrb	r0, [r0, #12]
    711c:	c2044007 	andgt	r4, r4, #7
    7120:	e5cd3004 	strb	r3, [sp, #4]
    7124:	e5cdc005 	strb	ip, [sp, #5]
    7128:	ebffeded 	bl	28e4 <wiringPiSPIDataRW@plt>
    712c:	e5dd3006 	ldrb	r3, [sp, #6]
    7130:	e3a02001 	mov	r2, #1
    7134:	e0133412 	ands	r3, r3, r2, lsl r4
    7138:	11a00002 	movne	r0, r2
    713c:	03a00000 	moveq	r0, #0
    7140:	e28dd008 	add	sp, sp, #8
    7144:	e8bd8010 	pop	{r4, pc}

00007148 <myPullUpDnControl>:
    7148:	e5903010 	ldr	r3, [r0, #16]
    714c:	e92d41f0 	push	{r4, r5, r6, r7, r8, lr}
    7150:	e3a08001 	mov	r8, #1
    7154:	e590c000 	ldr	ip, [r0]
    7158:	e1a03813 	lsl	r3, r3, r8
    715c:	e041c00c 	sub	ip, r1, ip
    7160:	e24dd008 	sub	sp, sp, #8
    7164:	e35c0007 	cmp	ip, #7
    7168:	e1a05000 	mov	r5, r0
    716c:	c20cc007 	andgt	ip, ip, #7
    7170:	e28d6004 	add	r6, sp, #4
    7174:	e203300e 	and	r3, r3, #14
    7178:	c3a0400d 	movgt	r4, #13
    717c:	d3a0400c 	movle	r4, #12
    7180:	e1a07002 	mov	r7, r2
    7184:	e3833041 	orr	r3, r3, #65	; 0x41
    7188:	e1a01006 	mov	r1, r6
    718c:	e3a02003 	mov	r2, #3
    7190:	e5d0000c 	ldrb	r0, [r0, #12]
    7194:	e1a08c18 	lsl	r8, r8, ip
    7198:	e5cd3004 	strb	r3, [sp, #4]
    719c:	e5cd4005 	strb	r4, [sp, #5]
    71a0:	ebffedcf 	bl	28e4 <wiringPiSPIDataRW@plt>
    71a4:	e5953010 	ldr	r3, [r5, #16]
    71a8:	e5ddc006 	ldrb	ip, [sp, #6]
    71ac:	e3570002 	cmp	r7, #2
    71b0:	e1a03083 	lsl	r3, r3, #1
    71b4:	e203300e 	and	r3, r3, #14
    71b8:	0188c00c 	orreq	ip, r8, ip
    71bc:	11ccc008 	bicne	ip, ip, r8
    71c0:	e3833040 	orr	r3, r3, #64	; 0x40
    71c4:	e1a01006 	mov	r1, r6
    71c8:	e5d5000c 	ldrb	r0, [r5, #12]
    71cc:	e3a02003 	mov	r2, #3
    71d0:	e5cd4005 	strb	r4, [sp, #5]
    71d4:	e5cdc006 	strb	ip, [sp, #6]
    71d8:	e5cd3004 	strb	r3, [sp, #4]
    71dc:	ebffedc0 	bl	28e4 <wiringPiSPIDataRW@plt>
    71e0:	e28dd008 	add	sp, sp, #8
    71e4:	e8bd81f0 	pop	{r4, r5, r6, r7, r8, pc}

000071e8 <myPinMode>:
    71e8:	e92d41f0 	push	{r4, r5, r6, r7, r8, lr}
    71ec:	e24dd008 	sub	sp, sp, #8
    71f0:	e5905000 	ldr	r5, [r0]
    71f4:	e5903010 	ldr	r3, [r0, #16]
    71f8:	e041c005 	sub	ip, r1, r5
    71fc:	e3a05001 	mov	r5, #1
    7200:	e35c0007 	cmp	ip, #7
    7204:	e1a03513 	lsl	r3, r3, r5
    7208:	c20cc007 	andgt	ip, ip, #7
    720c:	e28d7004 	add	r7, sp, #4
    7210:	e203300e 	and	r3, r3, #14
    7214:	c3a04001 	movgt	r4, #1
    7218:	d3a04000 	movle	r4, #0
    721c:	e1a06000 	mov	r6, r0
    7220:	e1a08002 	mov	r8, r2
    7224:	e3833041 	orr	r3, r3, #65	; 0x41
    7228:	e1a01007 	mov	r1, r7
    722c:	e3a02003 	mov	r2, #3
    7230:	e5d0000c 	ldrb	r0, [r0, #12]
    7234:	e1a05c15 	lsl	r5, r5, ip
    7238:	e5cd3004 	strb	r3, [sp, #4]
    723c:	e5cd4005 	strb	r4, [sp, #5]
    7240:	ebffeda7 	bl	28e4 <wiringPiSPIDataRW@plt>
    7244:	e5dd3006 	ldrb	r3, [sp, #6]
    7248:	e3580001 	cmp	r8, #1
    724c:	e1a01007 	mov	r1, r7
    7250:	01c35005 	biceq	r5, r3, r5
    7254:	11855003 	orrne	r5, r5, r3
    7258:	e5963010 	ldr	r3, [r6, #16]
    725c:	e5d6000c 	ldrb	r0, [r6, #12]
    7260:	e3a02003 	mov	r2, #3
    7264:	e1a03083 	lsl	r3, r3, #1
    7268:	e203300e 	and	r3, r3, #14
    726c:	e3833040 	orr	r3, r3, #64	; 0x40
    7270:	e5cd4005 	strb	r4, [sp, #5]
    7274:	e5cd5006 	strb	r5, [sp, #6]
    7278:	e5cd3004 	strb	r3, [sp, #4]
    727c:	ebffed98 	bl	28e4 <wiringPiSPIDataRW@plt>
    7280:	e28dd008 	add	sp, sp, #8
    7284:	e8bd81f0 	pop	{r4, r5, r6, r7, r8, pc}

00007288 <mcp23s17Setup>:
    7288:	e92d4ff0 	push	{r4, r5, r6, r7, r8, r9, sl, fp, lr}
    728c:	e1a06001 	mov	r6, r1
    7290:	e24dd00c 	sub	sp, sp, #12
    7294:	e1a0b000 	mov	fp, r0
    7298:	e59f1104 	ldr	r1, [pc, #260]	; 73a4 <mcp23s17Setup+0x11c>
    729c:	e1a00006 	mov	r0, r6
    72a0:	e1a09002 	mov	r9, r2
    72a4:	ebffedb8 	bl	298c <wiringPiSPISetup@plt>
    72a8:	e3500000 	cmp	r0, #0
    72ac:	b3a00000 	movlt	r0, #0
    72b0:	ba000039 	blt	739c <mcp23s17Setup+0x114>
    72b4:	e1a05089 	lsl	r5, r9, #1
    72b8:	e6ef8076 	uxtb	r8, r6
    72bc:	e28d7004 	add	r7, sp, #4
    72c0:	e205500e 	and	r5, r5, #14
    72c4:	e385a040 	orr	sl, r5, #64	; 0x40
    72c8:	e3a0300a 	mov	r3, #10
    72cc:	e3a04028 	mov	r4, #40	; 0x28
    72d0:	e1a01007 	mov	r1, r7
    72d4:	e3a02003 	mov	r2, #3
    72d8:	e1a00008 	mov	r0, r8
    72dc:	e5cd3005 	strb	r3, [sp, #5]
    72e0:	e5cd4006 	strb	r4, [sp, #6]
    72e4:	e5cda004 	strb	sl, [sp, #4]
    72e8:	ebffed7d 	bl	28e4 <wiringPiSPIDataRW@plt>
    72ec:	e3a0300b 	mov	r3, #11
    72f0:	e3a02003 	mov	r2, #3
    72f4:	e1a01007 	mov	r1, r7
    72f8:	e1a00008 	mov	r0, r8
    72fc:	e5cd3005 	strb	r3, [sp, #5]
    7300:	e5cd4006 	strb	r4, [sp, #6]
    7304:	e5cda004 	strb	sl, [sp, #4]
    7308:	ebffed75 	bl	28e4 <wiringPiSPIDataRW@plt>
    730c:	e3a01010 	mov	r1, #16
    7310:	e1a0000b 	mov	r0, fp
    7314:	ebffedde 	bl	2a94 <wiringPiNewNode@plt>
    7318:	e59f1088 	ldr	r1, [pc, #136]	; 73a8 <mcp23s17Setup+0x120>
    731c:	e59f2088 	ldr	r2, [pc, #136]	; 73ac <mcp23s17Setup+0x124>
    7320:	e59f3088 	ldr	r3, [pc, #136]	; 73b0 <mcp23s17Setup+0x128>
    7324:	e08f1001 	add	r1, pc, r1
    7328:	e08f2002 	add	r2, pc, r2
    732c:	e08f3003 	add	r3, pc, r3
    7330:	e3855041 	orr	r5, r5, #65	; 0x41
    7334:	e1a04000 	mov	r4, r0
    7338:	e59f0074 	ldr	r0, [pc, #116]	; 73b4 <mcp23s17Setup+0x12c>
    733c:	e1c422f4 	strd	r2, [r4, #36]	; 0x24
    7340:	e08f0000 	add	r0, pc, r0
    7344:	e584600c 	str	r6, [r4, #12]
    7348:	e1c401fc 	strd	r0, [r4, #28]
    734c:	e5849010 	str	r9, [r4, #16]
    7350:	e3a03014 	mov	r3, #20
    7354:	e1a01007 	mov	r1, r7
    7358:	e3a02003 	mov	r2, #3
    735c:	e1a00008 	mov	r0, r8
    7360:	e5cd3005 	strb	r3, [sp, #5]
    7364:	e5cd5004 	strb	r5, [sp, #4]
    7368:	ebffed5d 	bl	28e4 <wiringPiSPIDataRW@plt>
    736c:	e5dd3006 	ldrb	r3, [sp, #6]
    7370:	e1a01007 	mov	r1, r7
    7374:	e1a00008 	mov	r0, r8
    7378:	e5843014 	str	r3, [r4, #20]
    737c:	e3a02003 	mov	r2, #3
    7380:	e3a03015 	mov	r3, #21
    7384:	e5cd3005 	strb	r3, [sp, #5]
    7388:	e5cd5004 	strb	r5, [sp, #4]
    738c:	ebffed54 	bl	28e4 <wiringPiSPIDataRW@plt>
    7390:	e5dd3006 	ldrb	r3, [sp, #6]
    7394:	e3a00001 	mov	r0, #1
    7398:	e5843018 	str	r3, [r4, #24]
    739c:	e28dd00c 	add	sp, sp, #12
    73a0:	e8bd8ff0 	pop	{r4, r5, r6, r7, r8, r9, sl, fp, pc}
    73a4:	003d0900 	.word	0x003d0900
    73a8:	fffffe1c 	.word	0xfffffe1c
    73ac:	fffffdb4 	.word	0xfffffdb4
    73b0:	fffffcf0 	.word	0xfffffcf0
    73b4:	fffffea0 	.word	0xfffffea0

000073b8 <myDigitalWrite>:
    73b8:	e92d47f0 	push	{r4, r5, r6, r7, r8, r9, sl, lr}
    73bc:	e3a06001 	mov	r6, #1
    73c0:	e8900018 	ldm	r0, {r3, r4}
    73c4:	e3520000 	cmp	r2, #0
    73c8:	e5909014 	ldr	r9, [r0, #20]
    73cc:	e0411003 	sub	r1, r1, r3
    73d0:	e590700c 	ldr	r7, [r0, #12]
    73d4:	e1a01116 	lsl	r1, r6, r1
    73d8:	e5906018 	ldr	r6, [r0, #24]
    73dc:	e5905010 	ldr	r5, [r0, #16]
    73e0:	01c66001 	biceq	r6, r6, r1
    73e4:	11866001 	orrne	r6, r6, r1
    73e8:	e5806018 	str	r6, [r0, #24]
    73ec:	e3a01000 	mov	r1, #0
    73f0:	e1a00009 	mov	r0, r9
    73f4:	e0444003 	sub	r4, r4, r3
    73f8:	ebffeca3 	bl	268c <digitalWrite@plt>
    73fc:	e3a00001 	mov	r0, #1
    7400:	ebffece0 	bl	2788 <delayMicroseconds@plt>
    7404:	e3540000 	cmp	r4, #0
    7408:	ba000010 	blt	7450 <myDigitalWrite+0x98>
    740c:	e3a08001 	mov	r8, #1
    7410:	e0061418 	and	r1, r6, r8, lsl r4
    7414:	e1a00007 	mov	r0, r7
    7418:	ebffec9b 	bl	268c <digitalWrite@plt>
    741c:	e3a01001 	mov	r1, #1
    7420:	e1a00005 	mov	r0, r5
    7424:	ebffec98 	bl	268c <digitalWrite@plt>
    7428:	e3a00001 	mov	r0, #1
    742c:	ebffecd5 	bl	2788 <delayMicroseconds@plt>
    7430:	e3a01000 	mov	r1, #0
    7434:	e1a00005 	mov	r0, r5
    7438:	ebffec93 	bl	268c <digitalWrite@plt>
    743c:	e2444001 	sub	r4, r4, #1
    7440:	e3a00001 	mov	r0, #1
    7444:	ebffeccf 	bl	2788 <delayMicroseconds@plt>
    7448:	e3740001 	cmn	r4, #1
    744c:	1affffef 	bne	7410 <myDigitalWrite+0x58>
    7450:	e1a00009 	mov	r0, r9
    7454:	e3a01001 	mov	r1, #1
    7458:	ebffec8b 	bl	268c <digitalWrite@plt>
    745c:	e3a00001 	mov	r0, #1
    7460:	e8bd47f0 	pop	{r4, r5, r6, r7, r8, r9, sl, lr}
    7464:	eaffecc7 	b	2788 <delayMicroseconds@plt>

00007468 <sr595Setup>:
    7468:	e92d41f0 	push	{r4, r5, r6, r7, r8, lr}
    746c:	e1a06002 	mov	r6, r2
    7470:	e1a05003 	mov	r5, r3
    7474:	e59d4018 	ldr	r4, [sp, #24]
    7478:	ebffed85 	bl	2a94 <wiringPiNewNode@plt>
    747c:	e59f3068 	ldr	r3, [pc, #104]	; 74ec <sr595Setup+0x84>
    7480:	e3a07000 	mov	r7, #0
    7484:	e08f3003 	add	r3, pc, r3
    7488:	e1a01007 	mov	r1, r7
    748c:	e5803028 	str	r3, [r0, #40]	; 0x28
    7490:	e580600c 	str	r6, [r0, #12]
    7494:	e5805010 	str	r5, [r0, #16]
    7498:	e5804014 	str	r4, [r0, #20]
    749c:	e5807018 	str	r7, [r0, #24]
    74a0:	e1a00006 	mov	r0, r6
    74a4:	ebffec78 	bl	268c <digitalWrite@plt>
    74a8:	e1a01007 	mov	r1, r7
    74ac:	e1a00005 	mov	r0, r5
    74b0:	ebffec75 	bl	268c <digitalWrite@plt>
    74b4:	e1a00004 	mov	r0, r4
    74b8:	e3a01001 	mov	r1, #1
    74bc:	ebffec72 	bl	268c <digitalWrite@plt>
    74c0:	e1a00006 	mov	r0, r6
    74c4:	e3a01001 	mov	r1, #1
    74c8:	ebffed26 	bl	2968 <pinMode@plt>
    74cc:	e1a00005 	mov	r0, r5
    74d0:	e3a01001 	mov	r1, #1
    74d4:	ebffed23 	bl	2968 <pinMode@plt>
    74d8:	e1a00004 	mov	r0, r4
    74dc:	e3a01001 	mov	r1, #1
    74e0:	ebffed20 	bl	2968 <pinMode@plt>
    74e4:	e3a00001 	mov	r0, #1
    74e8:	e8bd81f0 	pop	{r4, r5, r6, r7, r8, pc}
    74ec:	ffffff2c 	.word	0xffffff2c

000074f0 <myDigitalRead>:
    74f0:	e5903000 	ldr	r3, [r0]
    74f4:	e92d4010 	push	{r4, lr}
    74f8:	e0411003 	sub	r1, r1, r3
    74fc:	e2011007 	and	r1, r1, #7
    7500:	e3a04001 	mov	r4, #1
    7504:	e5900008 	ldr	r0, [r0, #8]
    7508:	e1a04114 	lsl	r4, r4, r1
    750c:	ebffec70 	bl	26d4 <wiringPiI2CRead@plt>
    7510:	e1140000 	tst	r4, r0
    7514:	13a00001 	movne	r0, #1
    7518:	03a00000 	moveq	r0, #0
    751c:	e8bd8010 	pop	{r4, pc}

00007520 <myDigitalWrite>:
    7520:	e92d4070 	push	{r4, r5, r6, lr}
    7524:	e3a03001 	mov	r3, #1
    7528:	e5904000 	ldr	r4, [r0]
    752c:	e3520000 	cmp	r2, #0
    7530:	e0414004 	sub	r4, r1, r4
    7534:	e2044007 	and	r4, r4, #7
    7538:	e5901014 	ldr	r1, [r0, #20]
    753c:	e1a03413 	lsl	r3, r3, r4
    7540:	e1a05000 	mov	r5, r0
    7544:	01c14003 	biceq	r4, r1, r3
    7548:	11834001 	orrne	r4, r3, r1
    754c:	e1a01004 	mov	r1, r4
    7550:	e5900008 	ldr	r0, [r0, #8]
    7554:	ebffec6d 	bl	2710 <wiringPiI2CWrite@plt>
    7558:	e5854014 	str	r4, [r5, #20]
    755c:	e8bd8070 	pop	{r4, r5, r6, pc}

00007560 <myPinMode>:
    7560:	e92d4070 	push	{r4, r5, r6, lr}
    7564:	e3a03001 	mov	r3, #1
    7568:	e5904000 	ldr	r4, [r0]
    756c:	e1520003 	cmp	r2, r3
    7570:	e0414004 	sub	r4, r1, r4
    7574:	e2044007 	and	r4, r4, #7
    7578:	e5901014 	ldr	r1, [r0, #20]
    757c:	e1a03413 	lsl	r3, r3, r4
    7580:	e1a05000 	mov	r5, r0
    7584:	01c14003 	biceq	r4, r1, r3
    7588:	11834001 	orrne	r4, r3, r1
    758c:	e1a01004 	mov	r1, r4
    7590:	e5900008 	ldr	r0, [r0, #8]
    7594:	ebffec5d 	bl	2710 <wiringPiI2CWrite@plt>
    7598:	e5854014 	str	r4, [r5, #20]
    759c:	e8bd8070 	pop	{r4, r5, r6, pc}

000075a0 <pcf8574Setup>:
    75a0:	e92d4070 	push	{r4, r5, r6, lr}
    75a4:	e1a04000 	mov	r4, r0
    75a8:	e1a00001 	mov	r0, r1
    75ac:	ebffec45 	bl	26c8 <wiringPiI2CSetup@plt>
    75b0:	e2505000 	subs	r5, r0, #0
    75b4:	b3a03000 	movlt	r3, #0
    75b8:	ba000010 	blt	7600 <pcf8574Setup+0x60>
    75bc:	e1a00004 	mov	r0, r4
    75c0:	e3a01008 	mov	r1, #8
    75c4:	ebffed32 	bl	2a94 <wiringPiNewNode@plt>
    75c8:	e59f2038 	ldr	r2, [pc, #56]	; 7608 <pcf8574Setup+0x68>
    75cc:	e59f3038 	ldr	r3, [pc, #56]	; 760c <pcf8574Setup+0x6c>
    75d0:	e59f1038 	ldr	r1, [pc, #56]	; 7610 <pcf8574Setup+0x70>
    75d4:	e08f3003 	add	r3, pc, r3
    75d8:	e08f2002 	add	r2, pc, r2
    75dc:	e08f1001 	add	r1, pc, r1
    75e0:	e1a04000 	mov	r4, r0
    75e4:	e5805008 	str	r5, [r0, #8]
    75e8:	e1c422f4 	strd	r2, [r4, #36]	; 0x24
    75ec:	e1a00005 	mov	r0, r5
    75f0:	e584101c 	str	r1, [r4, #28]
    75f4:	ebffec36 	bl	26d4 <wiringPiI2CRead@plt>
    75f8:	e3a03001 	mov	r3, #1
    75fc:	e5840014 	str	r0, [r4, #20]
    7600:	e1a00003 	mov	r0, r3
    7604:	e8bd8070 	pop	{r4, r5, r6, pc}
    7608:	ffffff10 	.word	0xffffff10
    760c:	ffffff44 	.word	0xffffff44
    7610:	ffffff7c 	.word	0xffffff7c

00007614 <myAnalogWrite>:
    7614:	e52de004 	push	{lr}		; (str lr, [sp, #-4]!)
    7618:	e24dd00c 	sub	sp, sp, #12
    761c:	e3a03040 	mov	r3, #64	; 0x40
    7620:	e5cd2005 	strb	r2, [sp, #5]
    7624:	e28d1004 	add	r1, sp, #4
    7628:	e3a02002 	mov	r2, #2
    762c:	e5900008 	ldr	r0, [r0, #8]
    7630:	e5cd3004 	strb	r3, [sp, #4]
    7634:	ebffecbf 	bl	2938 <write@plt>
    7638:	e28dd00c 	add	sp, sp, #12
    763c:	e49df004 	pop	{pc}		; (ldr pc, [sp], #4)

00007640 <myAnalogRead>:
    7640:	e5903000 	ldr	r3, [r0]
    7644:	e92d4010 	push	{r4, lr}
    7648:	e0411003 	sub	r1, r1, r3
    764c:	e1a04000 	mov	r4, r0
    7650:	e2011003 	and	r1, r1, #3
    7654:	e3811040 	orr	r1, r1, #64	; 0x40
    7658:	e5900008 	ldr	r0, [r0, #8]
    765c:	ebffec2b 	bl	2710 <wiringPiI2CWrite@plt>
    7660:	e5940008 	ldr	r0, [r4, #8]
    7664:	ebffec1a 	bl	26d4 <wiringPiI2CRead@plt>
    7668:	e5940008 	ldr	r0, [r4, #8]
    766c:	e8bd4010 	pop	{r4, lr}
    7670:	eaffec17 	b	26d4 <wiringPiI2CRead@plt>

00007674 <pcf8591Setup>:
    7674:	e92d4070 	push	{r4, r5, r6, lr}
    7678:	e1a05000 	mov	r5, r0
    767c:	e1a00001 	mov	r0, r1
    7680:	ebffec10 	bl	26c8 <wiringPiI2CSetup@plt>
    7684:	e2504000 	subs	r4, r0, #0
    7688:	ba00000a 	blt	76b8 <pcf8591Setup+0x44>
    768c:	e1a00005 	mov	r0, r5
    7690:	e3a01004 	mov	r1, #4
    7694:	ebffecfe 	bl	2a94 <wiringPiNewNode@plt>
    7698:	e59f2020 	ldr	r2, [pc, #32]	; 76c0 <pcf8591Setup+0x4c>
    769c:	e59f3020 	ldr	r3, [pc, #32]	; 76c4 <pcf8591Setup+0x50>
    76a0:	e08f2002 	add	r2, pc, r2
    76a4:	e08f3003 	add	r3, pc, r3
    76a8:	e5804008 	str	r4, [r0, #8]
    76ac:	e1c023f0 	strd	r2, [r0, #48]	; 0x30
    76b0:	e3a00001 	mov	r0, #1
    76b4:	e8bd8070 	pop	{r4, r5, r6, pc}
    76b8:	e3a00000 	mov	r0, #0
    76bc:	e8bd8070 	pop	{r4, r5, r6, pc}
    76c0:	ffffff98 	.word	0xffffff98
    76c4:	ffffff68 	.word	0xffffff68

000076c8 <myAnalogRead>:
    76c8:	e5903000 	ldr	r3, [r0]
    76cc:	e52de004 	push	{lr}		; (str lr, [sp, #-4]!)
    76d0:	e1530001 	cmp	r3, r1
    76d4:	e24dd00c 	sub	sp, sp, #12
    76d8:	03a030d0 	moveq	r3, #208	; 0xd0
    76dc:	13a030f0 	movne	r3, #240	; 0xf0
    76e0:	e3a0c000 	mov	ip, #0
    76e4:	e3a02002 	mov	r2, #2
    76e8:	e28d1004 	add	r1, sp, #4
    76ec:	e5900008 	ldr	r0, [r0, #8]
    76f0:	e5cd3004 	strb	r3, [sp, #4]
    76f4:	e5cdc005 	strb	ip, [sp, #5]
    76f8:	ebffec79 	bl	28e4 <wiringPiSPIDataRW@plt>
    76fc:	e5dd3005 	ldrb	r3, [sp, #5]
    7700:	e5dd2004 	ldrb	r2, [sp, #4]
    7704:	e59f0010 	ldr	r0, [pc, #16]	; 771c <myAnalogRead+0x54>
    7708:	e1a030a3 	lsr	r3, r3, #1
    770c:	e1833402 	orr	r3, r3, r2, lsl #8
    7710:	e0000003 	and	r0, r0, r3
    7714:	e28dd00c 	add	sp, sp, #12
    7718:	e49df004 	pop	{pc}		; (ldr pc, [sp], #4)
    771c:	0000037f 	.word	0x0000037f

00007720 <mcp3002Setup>:
    7720:	e92d4070 	push	{r4, r5, r6, lr}
    7724:	e1a04001 	mov	r4, r1
    7728:	e1a05000 	mov	r5, r0
    772c:	e59f1038 	ldr	r1, [pc, #56]	; 776c <mcp3002Setup+0x4c>
    7730:	e1a00004 	mov	r0, r4
    7734:	ebffec94 	bl	298c <wiringPiSPISetup@plt>
    7738:	e3500000 	cmp	r0, #0
    773c:	ba000008 	blt	7764 <mcp3002Setup+0x44>
    7740:	e1a00005 	mov	r0, r5
    7744:	e3a01002 	mov	r1, #2
    7748:	ebffecd1 	bl	2a94 <wiringPiNewNode@plt>
    774c:	e59f301c 	ldr	r3, [pc, #28]	; 7770 <mcp3002Setup+0x50>
    7750:	e08f3003 	add	r3, pc, r3
    7754:	e5804008 	str	r4, [r0, #8]
    7758:	e5803030 	str	r3, [r0, #48]	; 0x30
    775c:	e3a00001 	mov	r0, #1
    7760:	e8bd8070 	pop	{r4, r5, r6, pc}
    7764:	e3a00000 	mov	r0, #0
    7768:	e8bd8070 	pop	{r4, r5, r6, pc}
    776c:	000f4240 	.word	0x000f4240
    7770:	ffffff70 	.word	0xffffff70

00007774 <myAnalogRead>:
    7774:	e5902000 	ldr	r2, [r0]
    7778:	e52de004 	push	{lr}		; (str lr, [sp, #-4]!)
    777c:	e0411002 	sub	r1, r1, r2
    7780:	e24dd00c 	sub	sp, sp, #12
    7784:	e3e0307f 	mvn	r3, #127	; 0x7f
    7788:	e1833201 	orr	r3, r3, r1, lsl #4
    778c:	e3a0e001 	mov	lr, #1
    7790:	e3a0c000 	mov	ip, #0
    7794:	e3a02003 	mov	r2, #3
    7798:	e28d1004 	add	r1, sp, #4
    779c:	e5900008 	ldr	r0, [r0, #8]
    77a0:	e5cd3005 	strb	r3, [sp, #5]
    77a4:	e5cde004 	strb	lr, [sp, #4]
    77a8:	e5cdc006 	strb	ip, [sp, #6]
    77ac:	ebffec4c 	bl	28e4 <wiringPiSPIDataRW@plt>
    77b0:	e1dd00b5 	ldrh	r0, [sp, #5]
    77b4:	e6bf0fb0 	rev16	r0, r0
    77b8:	e1a00b00 	lsl	r0, r0, #22
    77bc:	e1a00b20 	lsr	r0, r0, #22
    77c0:	e28dd00c 	add	sp, sp, #12
    77c4:	e49df004 	pop	{pc}		; (ldr pc, [sp], #4)

000077c8 <mcp3004Setup>:
    77c8:	e92d4070 	push	{r4, r5, r6, lr}
    77cc:	e1a04001 	mov	r4, r1
    77d0:	e1a05000 	mov	r5, r0
    77d4:	e59f1038 	ldr	r1, [pc, #56]	; 7814 <mcp3004Setup+0x4c>
    77d8:	e1a00004 	mov	r0, r4
    77dc:	ebffec6a 	bl	298c <wiringPiSPISetup@plt>
    77e0:	e3500000 	cmp	r0, #0
    77e4:	ba000008 	blt	780c <mcp3004Setup+0x44>
    77e8:	e1a00005 	mov	r0, r5
    77ec:	e3a01008 	mov	r1, #8
    77f0:	ebffeca7 	bl	2a94 <wiringPiNewNode@plt>
    77f4:	e59f301c 	ldr	r3, [pc, #28]	; 7818 <mcp3004Setup+0x50>
    77f8:	e08f3003 	add	r3, pc, r3
    77fc:	e5804008 	str	r4, [r0, #8]
    7800:	e5803030 	str	r3, [r0, #48]	; 0x30
    7804:	e3a00001 	mov	r0, #1
    7808:	e8bd8070 	pop	{r4, r5, r6, pc}
    780c:	e3a00000 	mov	r0, #0
    7810:	e8bd8070 	pop	{r4, r5, r6, pc}
    7814:	000f4240 	.word	0x000f4240
    7818:	ffffff74 	.word	0xffffff74

0000781c <myAnalogWrite>:
    781c:	e590c000 	ldr	ip, [r0]
    7820:	e1a03c02 	lsl	r3, r2, #24
    7824:	e15c0001 	cmp	ip, r1
    7828:	e52de004 	push	{lr}		; (str lr, [sp, #-4]!)
    782c:	03a0c030 	moveq	ip, #48	; 0x30
    7830:	e24dd00c 	sub	sp, sp, #12
    7834:	13e0c04f 	mvnne	ip, #79	; 0x4f
    7838:	e18cce23 	orr	ip, ip, r3, lsr #28
    783c:	e28d1004 	add	r1, sp, #4
    7840:	e1a03202 	lsl	r3, r2, #4
    7844:	e5900008 	ldr	r0, [r0, #8]
    7848:	e3a02002 	mov	r2, #2
    784c:	e5cdc004 	strb	ip, [sp, #4]
    7850:	e5cd3005 	strb	r3, [sp, #5]
    7854:	ebffec22 	bl	28e4 <wiringPiSPIDataRW@plt>
    7858:	e28dd00c 	add	sp, sp, #12
    785c:	e49df004 	pop	{pc}		; (ldr pc, [sp], #4)

00007860 <mcp4802Setup>:
    7860:	e92d4070 	push	{r4, r5, r6, lr}
    7864:	e1a04001 	mov	r4, r1
    7868:	e1a05000 	mov	r5, r0
    786c:	e59f1038 	ldr	r1, [pc, #56]	; 78ac <mcp4802Setup+0x4c>
    7870:	e1a00004 	mov	r0, r4
    7874:	ebffec44 	bl	298c <wiringPiSPISetup@plt>
    7878:	e3500000 	cmp	r0, #0
    787c:	ba000008 	blt	78a4 <mcp4802Setup+0x44>
    7880:	e1a00005 	mov	r0, r5
    7884:	e3a01002 	mov	r1, #2
    7888:	ebffec81 	bl	2a94 <wiringPiNewNode@plt>
    788c:	e59f301c 	ldr	r3, [pc, #28]	; 78b0 <mcp4802Setup+0x50>
    7890:	e08f3003 	add	r3, pc, r3
    7894:	e5804008 	str	r4, [r0, #8]
    7898:	e5803034 	str	r3, [r0, #52]	; 0x34
    789c:	e3a00001 	mov	r0, #1
    78a0:	e8bd8070 	pop	{r4, r5, r6, pc}
    78a4:	e3a00000 	mov	r0, #0
    78a8:	e8bd8070 	pop	{r4, r5, r6, pc}
    78ac:	000f4240 	.word	0x000f4240
    78b0:	ffffff84 	.word	0xffffff84

000078b4 <waitForConversion>:
    78b4:	e92d41f0 	push	{r4, r5, r6, r7, r8, lr}
    78b8:	e2424001 	sub	r4, r2, #1
    78bc:	e1a06002 	mov	r6, r2
    78c0:	e1a05001 	mov	r5, r1
    78c4:	e1a07000 	mov	r7, r0
    78c8:	e0814004 	add	r4, r1, r4
    78cc:	e1a02006 	mov	r2, r6
    78d0:	e1a01005 	mov	r1, r5
    78d4:	e1a00007 	mov	r0, r7
    78d8:	ebffeb35 	bl	25b4 <read@plt>
    78dc:	e1d430d0 	ldrsb	r3, [r4]
    78e0:	e3a00001 	mov	r0, #1
    78e4:	e3530000 	cmp	r3, #0
    78e8:	a8bd81f0 	popge	{r4, r5, r6, r7, r8, pc}
    78ec:	ebffebc0 	bl	27f4 <delay@plt>
    78f0:	eafffff5 	b	78cc <waitForConversion+0x18>

000078f4 <myAnalogRead>:
    78f4:	e5902000 	ldr	r2, [r0]
    78f8:	e2011003 	and	r1, r1, #3
    78fc:	e5903010 	ldr	r3, [r0, #16]
    7900:	e0411002 	sub	r1, r1, r2
    7904:	e590200c 	ldr	r2, [r0, #12]
    7908:	e1831281 	orr	r1, r3, r1, lsl #5
    790c:	e92d4010 	push	{r4, lr}
    7910:	e1811102 	orr	r1, r1, r2, lsl #2
    7914:	e1a04000 	mov	r4, r0
    7918:	e1e01c81 	mvn	r1, r1, lsl #25
    791c:	e24dd008 	sub	sp, sp, #8
    7920:	e1e01ca1 	mvn	r1, r1, lsr #25
    7924:	e5900008 	ldr	r0, [r0, #8]
    7928:	e6ef1071 	uxtb	r1, r1
    792c:	ebffeb77 	bl	2710 <wiringPiI2CWrite@plt>
    7930:	e594300c 	ldr	r3, [r4, #12]
    7934:	e3530003 	cmp	r3, #3
    7938:	908ff103 	addls	pc, pc, r3, lsl #2
    793c:	ea00002f 	b	7a00 <myAnalogRead+0x10c>
    7940:	ea000023 	b	79d4 <myAnalogRead+0xe0>
    7944:	ea000017 	b	79a8 <myAnalogRead+0xb4>
    7948:	ea00000d 	b	7984 <myAnalogRead+0x90>
    794c:	eaffffff 	b	7950 <myAnalogRead+0x5c>
    7950:	e3a02004 	mov	r2, #4
    7954:	e5940008 	ldr	r0, [r4, #8]
    7958:	e08d1002 	add	r1, sp, r2
    795c:	ebffeb80 	bl	2764 <waitForConversion@plt>
    7960:	e5dd0004 	ldrb	r0, [sp, #4]
    7964:	e1dd30b5 	ldrh	r3, [sp, #5]
    7968:	e6bf3fb3 	rev16	r3, r3
    796c:	e1a00800 	lsl	r0, r0, #16
    7970:	e2000803 	and	r0, r0, #196608	; 0x30000
    7974:	e6ff3073 	uxth	r3, r3
    7978:	e1800003 	orr	r0, r0, r3
    797c:	e28dd008 	add	sp, sp, #8
    7980:	e8bd8010 	pop	{r4, pc}
    7984:	e5940008 	ldr	r0, [r4, #8]
    7988:	e3a02003 	mov	r2, #3
    798c:	e28d1004 	add	r1, sp, #4
    7990:	ebffeb73 	bl	2764 <waitForConversion@plt>
    7994:	e1dd00b4 	ldrh	r0, [sp, #4]
    7998:	e6bf0fb0 	rev16	r0, r0
    799c:	e6ff0070 	uxth	r0, r0
    79a0:	e28dd008 	add	sp, sp, #8
    79a4:	e8bd8010 	pop	{r4, pc}
    79a8:	e5940008 	ldr	r0, [r4, #8]
    79ac:	e3a02003 	mov	r2, #3
    79b0:	e28d1004 	add	r1, sp, #4
    79b4:	ebffeb6a 	bl	2764 <waitForConversion@plt>
    79b8:	e5dd0004 	ldrb	r0, [sp, #4]
    79bc:	e5dd3005 	ldrb	r3, [sp, #5]
    79c0:	e1a00400 	lsl	r0, r0, #8
    79c4:	e2000c3f 	and	r0, r0, #16128	; 0x3f00
    79c8:	e1800003 	orr	r0, r0, r3
    79cc:	e28dd008 	add	sp, sp, #8
    79d0:	e8bd8010 	pop	{r4, pc}
    79d4:	e5940008 	ldr	r0, [r4, #8]
    79d8:	e3a02003 	mov	r2, #3
    79dc:	e28d1004 	add	r1, sp, #4
    79e0:	ebffeb5f 	bl	2764 <waitForConversion@plt>
    79e4:	e5dd0004 	ldrb	r0, [sp, #4]
    79e8:	e5dd3005 	ldrb	r3, [sp, #5]
    79ec:	e1a00400 	lsl	r0, r0, #8
    79f0:	e2000c0f 	and	r0, r0, #3840	; 0xf00
    79f4:	e1800003 	orr	r0, r0, r3
    79f8:	e28dd008 	add	sp, sp, #8
    79fc:	e8bd8010 	pop	{r4, pc}
    7a00:	e3a00000 	mov	r0, #0
    7a04:	eaffffdc 	b	797c <myAnalogRead+0x88>

00007a08 <mcp3422Setup>:
    7a08:	e92d41f0 	push	{r4, r5, r6, r7, r8, lr}
    7a0c:	e1a08000 	mov	r8, r0
    7a10:	e1a00001 	mov	r0, r1
    7a14:	e1a06002 	mov	r6, r2
    7a18:	e1a05003 	mov	r5, r3
    7a1c:	ebffeb29 	bl	26c8 <wiringPiI2CSetup@plt>
    7a20:	e59f4040 	ldr	r4, [pc, #64]	; 7a68 <mcp3422Setup+0x60>
    7a24:	e08f4004 	add	r4, pc, r4
    7a28:	e2507000 	subs	r7, r0, #0
    7a2c:	ba00000b 	blt	7a60 <mcp3422Setup+0x58>
    7a30:	e1a00008 	mov	r0, r8
    7a34:	e3a01004 	mov	r1, #4
    7a38:	ebffec15 	bl	2a94 <wiringPiNewNode@plt>
    7a3c:	e59f2028 	ldr	r2, [pc, #40]	; 7a6c <mcp3422Setup+0x64>
    7a40:	e5807008 	str	r7, [r0, #8]
    7a44:	e580600c 	str	r6, [r0, #12]
    7a48:	e5805010 	str	r5, [r0, #16]
    7a4c:	e1a03000 	mov	r3, r0
    7a50:	e7942002 	ldr	r2, [r4, r2]
    7a54:	e3a00001 	mov	r0, #1
    7a58:	e5832030 	str	r2, [r3, #48]	; 0x30
    7a5c:	e8bd81f0 	pop	{r4, r5, r6, r7, r8, pc}
    7a60:	e3a00000 	mov	r0, #0
    7a64:	e8bd81f0 	pop	{r4, r5, r6, r7, r8, pc}
    7a68:	000145d4 	.word	0x000145d4
    7a6c:	0000025c 	.word	0x0000025c

00007a70 <myAnalogRead>:
    7a70:	e92d4010 	push	{r4, lr}
    7a74:	e3a02004 	mov	r2, #4
    7a78:	e5904000 	ldr	r4, [r0]
    7a7c:	e24dd008 	sub	sp, sp, #8
    7a80:	e5900008 	ldr	r0, [r0, #8]
    7a84:	e0414004 	sub	r4, r1, r4
    7a88:	e08d1002 	add	r1, sp, r2
    7a8c:	ebffeb94 	bl	28e4 <wiringPiSPIDataRW@plt>
    7a90:	e59d0004 	ldr	r0, [sp, #4]
    7a94:	e6bf0f30 	rev	r0, r0
    7a98:	e3540003 	cmp	r4, #3
    7a9c:	908ff104 	addls	pc, pc, r4, lsl #2
    7aa0:	ea000035 	b	7b7c <myAnalogRead+0x10c>
    7aa4:	ea00002d 	b	7b60 <myAnalogRead+0xf0>
    7aa8:	ea000029 	b	7b54 <myAnalogRead+0xe4>
    7aac:	ea000018 	b	7b14 <myAnalogRead+0xa4>
    7ab0:	eaffffff 	b	7ab4 <myAnalogRead+0x44>
    7ab4:	e1a00920 	lsr	r0, r0, #18
    7ab8:	e3100a02 	tst	r0, #8192	; 0x2000
    7abc:	e1a00980 	lsl	r0, r0, #19
    7ac0:	ed9f0b30 	vldr	d0, [pc, #192]	; 7b88 <myAnalogRead+0x118>
    7ac4:	e1a009a0 	lsr	r0, r0, #19
    7ac8:	12600000 	rsbne	r0, r0, #0
    7acc:	ed9f5b2f 	vldr	d5, [pc, #188]	; 7b90 <myAnalogRead+0x120>
    7ad0:	ee070a90 	vmov	s15, r0
    7ad4:	ed9f1b2f 	vldr	d1, [pc, #188]	; 7b98 <myAnalogRead+0x128>
    7ad8:	ed9f2b30 	vldr	d2, [pc, #192]	; 7ba0 <myAnalogRead+0x130>
    7adc:	ed9f3b31 	vldr	d3, [pc, #196]	; 7ba8 <myAnalogRead+0x138>
    7ae0:	eeb87be7 	vcvt.f64.s32	d7, s15
    7ae4:	ed9f6b31 	vldr	d6, [pc, #196]	; 7bb0 <myAnalogRead+0x140>
    7ae8:	ed9f4b32 	vldr	d4, [pc, #200]	; 7bb8 <myAnalogRead+0x148>
    7aec:	ee277b00 	vmul.f64	d7, d7, d0
    7af0:	ee277b05 	vmul.f64	d7, d7, d5
    7af4:	ee875b01 	vdiv.f64	d5, d7, d1
    7af8:	ee355b02 	vadd.f64	d5, d5, d2
    7afc:	ee056b03 	vmla.f64	d6, d5, d3
    7b00:	ee867b04 	vdiv.f64	d7, d6, d4
    7b04:	eefd7bc7 	vcvt.s32.f64	s15, d7
    7b08:	ee170a90 	vmov	r0, s15
    7b0c:	e28dd008 	add	sp, sp, #8
    7b10:	e8bd8010 	pop	{r4, pc}
    7b14:	e1a00920 	lsr	r0, r0, #18
    7b18:	e3100a02 	tst	r0, #8192	; 0x2000
    7b1c:	e1a00980 	lsl	r0, r0, #19
    7b20:	ed9f4b26 	vldr	d4, [pc, #152]	; 7bc0 <myAnalogRead+0x150>
    7b24:	e1a009a0 	lsr	r0, r0, #19
    7b28:	12600000 	rsbne	r0, r0, #0
    7b2c:	ed9f6b1f 	vldr	d6, [pc, #124]	; 7bb0 <myAnalogRead+0x140>
    7b30:	ee070a90 	vmov	s15, r0
    7b34:	ed9f5b1f 	vldr	d5, [pc, #124]	; 7bb8 <myAnalogRead+0x148>
    7b38:	eeb87be7 	vcvt.f64.s32	d7, s15
    7b3c:	ee076b04 	vmla.f64	d6, d7, d4
    7b40:	ee867b05 	vdiv.f64	d7, d6, d5
    7b44:	eefd7bc7 	vcvt.s32.f64	s15, d7
    7b48:	ee170a90 	vmov	r0, s15
    7b4c:	e28dd008 	add	sp, sp, #8
    7b50:	e8bd8010 	pop	{r4, pc}
    7b54:	e2000007 	and	r0, r0, #7
    7b58:	e28dd008 	add	sp, sp, #8
    7b5c:	e8bd8010 	pop	{r4, pc}
    7b60:	e1a00920 	lsr	r0, r0, #18
    7b64:	e3100a02 	tst	r0, #8192	; 0x2000
    7b68:	e1a00980 	lsl	r0, r0, #19
    7b6c:	e1a009a0 	lsr	r0, r0, #19
    7b70:	12600000 	rsbne	r0, r0, #0
    7b74:	e28dd008 	add	sp, sp, #8
    7b78:	e8bd8010 	pop	{r4, pc}
    7b7c:	e3a00000 	mov	r0, #0
    7b80:	eaffffe1 	b	7b0c <myAnalogRead+0x9c>
    7b84:	e1a00000 	nop			; (mov r0, r0)
    7b88:	00000000 	.word	0x00000000
    7b8c:	3fd00000 	.word	0x3fd00000
    7b90:	00000000 	.word	0x00000000
    7b94:	40220000 	.word	0x40220000
    7b98:	00000000 	.word	0x00000000
    7b9c:	40140000 	.word	0x40140000
    7ba0:	00000000 	.word	0x00000000
    7ba4:	40400000 	.word	0x40400000
    7ba8:	00000000 	.word	0x00000000
    7bac:	40590000 	.word	0x40590000
    7bb0:	00000000 	.word	0x00000000
    7bb4:	3fe00000 	.word	0x3fe00000
    7bb8:	00000000 	.word	0x00000000
    7bbc:	40240000 	.word	0x40240000
    7bc0:	00000000 	.word	0x00000000
    7bc4:	40390000 	.word	0x40390000

00007bc8 <max31855Setup>:
    7bc8:	e92d4070 	push	{r4, r5, r6, lr}
    7bcc:	e1a04001 	mov	r4, r1
    7bd0:	e1a05000 	mov	r5, r0
    7bd4:	e59f1038 	ldr	r1, [pc, #56]	; 7c14 <max31855Setup+0x4c>
    7bd8:	e1a00004 	mov	r0, r4
    7bdc:	ebffeb6a 	bl	298c <wiringPiSPISetup@plt>
    7be0:	e3500000 	cmp	r0, #0
    7be4:	ba000008 	blt	7c0c <max31855Setup+0x44>
    7be8:	e1a00005 	mov	r0, r5
    7bec:	e3a01004 	mov	r1, #4
    7bf0:	ebffeba7 	bl	2a94 <wiringPiNewNode@plt>
    7bf4:	e59f301c 	ldr	r3, [pc, #28]	; 7c18 <max31855Setup+0x50>
    7bf8:	e08f3003 	add	r3, pc, r3
    7bfc:	e5804008 	str	r4, [r0, #8]
    7c00:	e5803030 	str	r3, [r0, #48]	; 0x30
    7c04:	e3a00001 	mov	r0, #1
    7c08:	e8bd8070 	pop	{r4, r5, r6, pc}
    7c0c:	e3a00000 	mov	r0, #0
    7c10:	e8bd8070 	pop	{r4, r5, r6, pc}
    7c14:	004c4b40 	.word	0x004c4b40
    7c18:	fffffe70 	.word	0xfffffe70

00007c1c <myAnalogWrite>:
    7c1c:	e5903000 	ldr	r3, [r0]
    7c20:	e1a0c002 	mov	ip, r2
    7c24:	e1530001 	cmp	r3, r1
    7c28:	e1a02802 	lsl	r2, r2, #16
    7c2c:	e52de004 	push	{lr}		; (str lr, [sp, #-4]!)
    7c30:	03a03040 	moveq	r3, #64	; 0x40
    7c34:	e24dd00c 	sub	sp, sp, #12
    7c38:	13a03050 	movne	r3, #80	; 0x50
    7c3c:	e1833e22 	orr	r3, r3, r2, lsr #28
    7c40:	e28d1004 	add	r1, sp, #4
    7c44:	e3a02002 	mov	r2, #2
    7c48:	e5900008 	ldr	r0, [r0, #8]
    7c4c:	e5cdc005 	strb	ip, [sp, #5]
    7c50:	e5cd3004 	strb	r3, [sp, #4]
    7c54:	ebffeb22 	bl	28e4 <wiringPiSPIDataRW@plt>
    7c58:	e28dd00c 	add	sp, sp, #12
    7c5c:	e49df004 	pop	{pc}		; (ldr pc, [sp], #4)

00007c60 <max5322Setup>:
    7c60:	e92d4030 	push	{r4, r5, lr}
    7c64:	e1a04001 	mov	r4, r1
    7c68:	e24dd00c 	sub	sp, sp, #12
    7c6c:	e1a05000 	mov	r5, r0
    7c70:	e59f1054 	ldr	r1, [pc, #84]	; 7ccc <max5322Setup+0x6c>
    7c74:	e1a00004 	mov	r0, r4
    7c78:	ebffeb43 	bl	298c <wiringPiSPISetup@plt>
    7c7c:	e3500000 	cmp	r0, #0
    7c80:	b3a00000 	movlt	r0, #0
    7c84:	ba00000e 	blt	7cc4 <max5322Setup+0x64>
    7c88:	e3a01002 	mov	r1, #2
    7c8c:	e1a00005 	mov	r0, r5
    7c90:	ebffeb7f 	bl	2a94 <wiringPiNewNode@plt>
    7c94:	e59f3034 	ldr	r3, [pc, #52]	; 7cd0 <max5322Setup+0x70>
    7c98:	e28d1004 	add	r1, sp, #4
    7c9c:	e08f3003 	add	r3, pc, r3
    7ca0:	e1a02000 	mov	r2, r0
    7ca4:	e5804008 	str	r4, [r0, #8]
    7ca8:	e5823034 	str	r3, [r2, #52]	; 0x34
    7cac:	e1a00004 	mov	r0, r4
    7cb0:	e3a030e0 	mov	r3, #224	; 0xe0
    7cb4:	e3a02002 	mov	r2, #2
    7cb8:	e1cd30b4 	strh	r3, [sp, #4]
    7cbc:	ebffeb08 	bl	28e4 <wiringPiSPIDataRW@plt>
    7cc0:	e3a00001 	mov	r0, #1
    7cc4:	e28dd00c 	add	sp, sp, #12
    7cc8:	e8bd8030 	pop	{r4, r5, pc}
    7ccc:	007a1200 	.word	0x007a1200
    7cd0:	ffffff78 	.word	0xffffff78

00007cd4 <myDigitalWrite>:
    7cd4:	e5903000 	ldr	r3, [r0]
    7cd8:	e0411003 	sub	r1, r1, r3
    7cdc:	e3110003 	tst	r1, #3
    7ce0:	1a00000a 	bne	7d10 <myDigitalWrite+0x3c>
    7ce4:	e3520006 	cmp	r2, #6
    7ce8:	83a03b01 	movhi	r3, #1024	; 0x400
    7cec:	9a000001 	bls	7cf8 <myDigitalWrite+0x24>
    7cf0:	e580300c 	str	r3, [r0, #12]
    7cf4:	e12fff1e 	bx	lr
    7cf8:	e59f3030 	ldr	r3, [pc, #48]	; 7d30 <myDigitalWrite+0x5c>
    7cfc:	e1a02082 	lsl	r2, r2, #1
    7d00:	e08f3003 	add	r3, pc, r3
    7d04:	e19330b2 	ldrh	r3, [r3, r2]
    7d08:	e580300c 	str	r3, [r0, #12]
    7d0c:	e12fff1e 	bx	lr
    7d10:	e3520007 	cmp	r2, #7
    7d14:	83a03080 	movhi	r3, #128	; 0x80
    7d18:	959f3014 	ldrls	r3, [pc, #20]	; 7d34 <myDigitalWrite+0x60>
    7d1c:	908f3003 	addls	r3, pc, r3
    7d20:	90832082 	addls	r2, r3, r2, lsl #1
    7d24:	91d230bc 	ldrhls	r3, [r2, #12]
    7d28:	e5803010 	str	r3, [r0, #16]
    7d2c:	e12fff1e 	bx	lr
    7d30:	00003958 	.word	0x00003958
    7d34:	0000393c 	.word	0x0000393c

00007d38 <myAnalogWrite>:
    7d38:	e5903000 	ldr	r3, [r0]
    7d3c:	e5900008 	ldr	r0, [r0, #8]
    7d40:	e0411003 	sub	r1, r1, r3
    7d44:	e2011003 	and	r1, r1, #3
    7d48:	e2811002 	add	r1, r1, #2
    7d4c:	eaffeb38 	b	2a34 <wiringPiI2CWriteReg16@plt>

00007d50 <myAnalogRead>:
    7d50:	e1c020dc 	ldrd	r2, [r0, #12]
    7d54:	e92d4070 	push	{r4, r5, r6, lr}
    7d58:	e1a04000 	mov	r4, r0
    7d5c:	e3c220e0 	bic	r2, r2, #224	; 0xe0
    7d60:	e5905000 	ldr	r5, [r0]
    7d64:	e1822003 	orr	r2, r2, r3
    7d68:	e3c22a07 	bic	r2, r2, #28672	; 0x7000
    7d6c:	e0415005 	sub	r5, r1, r5
    7d70:	e2053007 	and	r3, r5, #7
    7d74:	e6ff2072 	uxth	r2, r2
    7d78:	e3530007 	cmp	r3, #7
    7d7c:	908ff103 	addls	pc, pc, r3, lsl #2
    7d80:	ea000034 	b	7e58 <myAnalogRead+0x108>
    7d84:	ea000021 	b	7e10 <myAnalogRead+0xc0>
    7d88:	ea000023 	b	7e1c <myAnalogRead+0xcc>
    7d8c:	ea000025 	b	7e28 <myAnalogRead+0xd8>
    7d90:	ea000027 	b	7e34 <myAnalogRead+0xe4>
    7d94:	ea00002f 	b	7e58 <myAnalogRead+0x108>
    7d98:	ea00002b 	b	7e4c <myAnalogRead+0xfc>
    7d9c:	ea000000 	b	7da4 <myAnalogRead+0x54>
    7da0:	ea000026 	b	7e40 <myAnalogRead+0xf0>
    7da4:	e3822c91 	orr	r2, r2, #37120	; 0x9100
    7da8:	e3822003 	orr	r2, r2, #3
    7dac:	e6bf2fb2 	rev16	r2, r2
    7db0:	e3a01001 	mov	r1, #1
    7db4:	e6ff2072 	uxth	r2, r2
    7db8:	e5940008 	ldr	r0, [r4, #8]
    7dbc:	ebffeb1c 	bl	2a34 <wiringPiI2CWriteReg16@plt>
    7dc0:	ea000000 	b	7dc8 <myAnalogRead+0x78>
    7dc4:	ebffea6f 	bl	2788 <delayMicroseconds@plt>
    7dc8:	e3a01001 	mov	r1, #1
    7dcc:	e5940008 	ldr	r0, [r4, #8]
    7dd0:	ebffea21 	bl	265c <wiringPiI2CReadReg16@plt>
    7dd4:	e6ff0fb0 	revsh	r0, r0
    7dd8:	e3500000 	cmp	r0, #0
    7ddc:	e3a00064 	mov	r0, #100	; 0x64
    7de0:	aafffff7 	bge	7dc4 <myAnalogRead+0x74>
    7de4:	e5940008 	ldr	r0, [r4, #8]
    7de8:	e3a01000 	mov	r1, #0
    7dec:	ebffea1a 	bl	265c <wiringPiI2CReadReg16@plt>
    7df0:	e1a05125 	lsr	r5, r5, #2
    7df4:	e2255001 	eor	r5, r5, #1
    7df8:	e6bf0fb0 	rev16	r0, r0
    7dfc:	e6ff3070 	uxth	r3, r0
    7e00:	e6bf0070 	sxth	r0, r0
    7e04:	e01537a3 	ands	r3, r5, r3, lsr #15
    7e08:	13a00000 	movne	r0, #0
    7e0c:	e8bd8070 	pop	{r4, r5, r6, pc}
    7e10:	e3822cc1 	orr	r2, r2, #49408	; 0xc100
    7e14:	e3822003 	orr	r2, r2, #3
    7e18:	eaffffe3 	b	7dac <myAnalogRead+0x5c>
    7e1c:	e3822cd1 	orr	r2, r2, #53504	; 0xd100
    7e20:	e3822003 	orr	r2, r2, #3
    7e24:	eaffffe0 	b	7dac <myAnalogRead+0x5c>
    7e28:	e3822ce1 	orr	r2, r2, #57600	; 0xe100
    7e2c:	e3822003 	orr	r2, r2, #3
    7e30:	eaffffdd 	b	7dac <myAnalogRead+0x5c>
    7e34:	e3822cf1 	orr	r2, r2, #61696	; 0xf100
    7e38:	e3822003 	orr	r2, r2, #3
    7e3c:	eaffffda 	b	7dac <myAnalogRead+0x5c>
    7e40:	e3822ca1 	orr	r2, r2, #41216	; 0xa100
    7e44:	e3822003 	orr	r2, r2, #3
    7e48:	eaffffd7 	b	7dac <myAnalogRead+0x5c>
    7e4c:	e3822cb1 	orr	r2, r2, #45312	; 0xb100
    7e50:	e3822003 	orr	r2, r2, #3
    7e54:	eaffffd4 	b	7dac <myAnalogRead+0x5c>
    7e58:	e3822c81 	orr	r2, r2, #33024	; 0x8100
    7e5c:	e3822003 	orr	r2, r2, #3
    7e60:	eaffffd1 	b	7dac <myAnalogRead+0x5c>

00007e64 <ads1115Setup>:
    7e64:	e92d4070 	push	{r4, r5, r6, lr}
    7e68:	e1a05000 	mov	r5, r0
    7e6c:	e1a00001 	mov	r0, r1
    7e70:	ebffea14 	bl	26c8 <wiringPiI2CSetup@plt>
    7e74:	e2504000 	subs	r4, r0, #0
    7e78:	ba000012 	blt	7ec8 <ads1115Setup+0x64>
    7e7c:	e1a00005 	mov	r0, r5
    7e80:	e3a01008 	mov	r1, #8
    7e84:	ebffeb02 	bl	2a94 <wiringPiNewNode@plt>
    7e88:	e59f1040 	ldr	r1, [pc, #64]	; 7ed0 <ads1115Setup+0x6c>
    7e8c:	e59f2040 	ldr	r2, [pc, #64]	; 7ed4 <ads1115Setup+0x70>
    7e90:	e59f3040 	ldr	r3, [pc, #64]	; 7ed8 <ads1115Setup+0x74>
    7e94:	e08f1001 	add	r1, pc, r1
    7e98:	e08f2002 	add	r2, pc, r2
    7e9c:	e08f3003 	add	r3, pc, r3
    7ea0:	e3a0ec02 	mov	lr, #512	; 0x200
    7ea4:	e3a0c080 	mov	ip, #128	; 0x80
    7ea8:	e5804008 	str	r4, [r0, #8]
    7eac:	e580e00c 	str	lr, [r0, #12]
    7eb0:	e580c010 	str	ip, [r0, #16]
    7eb4:	e5801030 	str	r1, [r0, #48]	; 0x30
    7eb8:	e5802034 	str	r2, [r0, #52]	; 0x34
    7ebc:	e5803028 	str	r3, [r0, #40]	; 0x28
    7ec0:	e3a00001 	mov	r0, #1
    7ec4:	e8bd8070 	pop	{r4, r5, r6, pc}
    7ec8:	e3a00000 	mov	r0, #0
    7ecc:	e8bd8070 	pop	{r4, r5, r6, pc}
    7ed0:	fffffeb4 	.word	0xfffffeb4
    7ed4:	fffffe98 	.word	0xfffffe98
    7ed8:	fffffe30 	.word	0xfffffe30

00007edc <myAnalogWrite>:
    7edc:	e5903000 	ldr	r3, [r0]
    7ee0:	e92d4010 	push	{r4, lr}
    7ee4:	e0411003 	sub	r1, r1, r3
    7ee8:	e5904008 	ldr	r4, [r0, #8]
    7eec:	e6ef2072 	uxtb	r2, r2
    7ef0:	e2811001 	add	r1, r1, #1
    7ef4:	e1a00004 	mov	r0, r4
    7ef8:	ebffeb15 	bl	2b54 <wiringPiI2CWriteReg8@plt>
    7efc:	e1a00004 	mov	r0, r4
    7f00:	e3a02000 	mov	r2, #0
    7f04:	e3a01016 	mov	r1, #22
    7f08:	e8bd4010 	pop	{r4, lr}
    7f0c:	eaffeb10 	b	2b54 <wiringPiI2CWriteReg8@plt>

00007f10 <sn3218Setup>:
    7f10:	e92d4070 	push	{r4, r5, r6, lr}
    7f14:	e1a05000 	mov	r5, r0
    7f18:	e3a00054 	mov	r0, #84	; 0x54
    7f1c:	ebffe9e9 	bl	26c8 <wiringPiI2CSetup@plt>
    7f20:	e2504000 	subs	r4, r0, #0
    7f24:	ba00001b 	blt	7f98 <sn3218Setup+0x88>
    7f28:	e3a02001 	mov	r2, #1
    7f2c:	e3a01000 	mov	r1, #0
    7f30:	ebffeb07 	bl	2b54 <wiringPiI2CWriteReg8@plt>
    7f34:	e3a0203f 	mov	r2, #63	; 0x3f
    7f38:	e3a01013 	mov	r1, #19
    7f3c:	e1a00004 	mov	r0, r4
    7f40:	ebffeb03 	bl	2b54 <wiringPiI2CWriteReg8@plt>
    7f44:	e3a0203f 	mov	r2, #63	; 0x3f
    7f48:	e3a01014 	mov	r1, #20
    7f4c:	e1a00004 	mov	r0, r4
    7f50:	ebffeaff 	bl	2b54 <wiringPiI2CWriteReg8@plt>
    7f54:	e3a0203f 	mov	r2, #63	; 0x3f
    7f58:	e3a01015 	mov	r1, #21
    7f5c:	e1a00004 	mov	r0, r4
    7f60:	ebffeafb 	bl	2b54 <wiringPiI2CWriteReg8@plt>
    7f64:	e3a02000 	mov	r2, #0
    7f68:	e3a01016 	mov	r1, #22
    7f6c:	e1a00004 	mov	r0, r4
    7f70:	ebffeaf7 	bl	2b54 <wiringPiI2CWriteReg8@plt>
    7f74:	e1a00005 	mov	r0, r5
    7f78:	e3a01012 	mov	r1, #18
    7f7c:	ebffeac4 	bl	2a94 <wiringPiNewNode@plt>
    7f80:	e59f3018 	ldr	r3, [pc, #24]	; 7fa0 <sn3218Setup+0x90>
    7f84:	e08f3003 	add	r3, pc, r3
    7f88:	e5804008 	str	r4, [r0, #8]
    7f8c:	e5803034 	str	r3, [r0, #52]	; 0x34
    7f90:	e3a00001 	mov	r0, #1
    7f94:	e8bd8070 	pop	{r4, r5, r6, pc}
    7f98:	e3a00000 	mov	r0, #0
    7f9c:	e8bd8070 	pop	{r4, r5, r6, pc}
    7fa0:	ffffff50 	.word	0xffffff50
    7fa4:	00000000 	.word	0x00000000

00007fa8 <myAnalogWrite>:
    7fa8:	e5903000 	ldr	r3, [r0]
    7fac:	e1530001 	cmp	r3, r1
    7fb0:	059f3008 	ldreq	r3, [pc, #8]	; 7fc0 <myAnalogWrite+0x18>
    7fb4:	008f3003 	addeq	r3, pc, r3
    7fb8:	05832000 	streq	r2, [r3]
    7fbc:	e12fff1e 	bx	lr
    7fc0:	0001505c 	.word	0x0001505c

00007fc4 <myAnalogRead>:
    7fc4:	e92d47f0 	push	{r4, r5, r6, r7, r8, r9, sl, lr}
    7fc8:	ed2d8b0a 	vpush	{d8-d12}
    7fcc:	e5905008 	ldr	r5, [r0, #8]
    7fd0:	e5907000 	ldr	r7, [r0]
    7fd4:	e3a0202e 	mov	r2, #46	; 0x2e
    7fd8:	e24dd008 	sub	sp, sp, #8
    7fdc:	e0417007 	sub	r7, r1, r7
    7fe0:	e1a00005 	mov	r0, r5
    7fe4:	e3a010f4 	mov	r1, #244	; 0xf4
    7fe8:	ebffead9 	bl	2b54 <wiringPiI2CWriteReg8@plt>
    7fec:	e3a00005 	mov	r0, #5
    7ff0:	ebffe9ff 	bl	27f4 <delay@plt>
    7ff4:	e3a010f6 	mov	r1, #246	; 0xf6
    7ff8:	e1a00005 	mov	r0, r5
    7ffc:	ebffea32 	bl	28cc <wiringPiI2CReadReg8@plt>
    8000:	e3a010f7 	mov	r1, #247	; 0xf7
    8004:	ed9fbb79 	vldr	d11, [pc, #484]	; 81f0 <myAnalogRead+0x22c>
    8008:	ed9f8b7a 	vldr	d8, [pc, #488]	; 81f8 <myAnalogRead+0x234>
    800c:	ed9fab7b 	vldr	d10, [pc, #492]	; 8200 <myAnalogRead+0x23c>
    8010:	ed9f9b7c 	vldr	d9, [pc, #496]	; 8208 <myAnalogRead+0x244>
    8014:	e59f921c 	ldr	r9, [pc, #540]	; 8238 <myAnalogRead+0x274>
    8018:	e08f9009 	add	r9, pc, r9
    801c:	e1a04000 	mov	r4, r0
    8020:	e1a00005 	mov	r0, r5
    8024:	ebffea28 	bl	28cc <wiringPiI2CReadReg8@plt>
    8028:	e6ef4074 	uxtb	r4, r4
    802c:	eeb00b48 	vmov.f64	d0, d8
    8030:	ee074a90 	vmov	s15, r4
    8034:	e59f4200 	ldr	r4, [pc, #512]	; 823c <myAnalogRead+0x278>
    8038:	e08f4004 	add	r4, pc, r4
    803c:	eeb82be7 	vcvt.f64.s32	d2, s15
    8040:	ed944b02 	vldr	d4, [r4, #8]
    8044:	ed945b04 	vldr	d5, [r4, #16]
    8048:	ed947b08 	vldr	d7, [r4, #32]
    804c:	ed946b06 	vldr	d6, [r4, #24]
    8050:	e6ef0070 	uxtb	r0, r0
    8054:	ee030a90 	vmov	s7, r0
    8058:	eeb83be3 	vcvt.f64.s32	d3, s7
    805c:	ee023b0b 	vmla.f64	d3, d2, d11
    8060:	ee334b44 	vsub.f64	d4, d3, d4
    8064:	ee245b05 	vmul.f64	d5, d4, d5
    8068:	ee357b07 	vadd.f64	d7, d5, d7
    806c:	ee86cb07 	vdiv.f64	d12, d6, d7
    8070:	ee3ccb05 	vadd.f64	d12, d12, d5
    8074:	ee0c0b0a 	vmla.f64	d0, d12, d10
    8078:	ee800b09 	vdiv.f64	d0, d0, d9
    807c:	ebffea30 	bl	2944 <rint@plt>
    8080:	e59f31b8 	ldr	r3, [pc, #440]	; 8240 <myAnalogRead+0x27c>
    8084:	e3a02034 	mov	r2, #52	; 0x34
    8088:	e3a010f4 	mov	r1, #244	; 0xf4
    808c:	e7998003 	ldr	r8, [r9, r3]
    8090:	e1a00005 	mov	r0, r5
    8094:	eebd0bc0 	vcvt.s32.f64	s0, d0
    8098:	ed880a00 	vstr	s0, [r8]
    809c:	ebffeaac 	bl	2b54 <wiringPiI2CWriteReg8@plt>
    80a0:	e3a00005 	mov	r0, #5
    80a4:	ebffe9d2 	bl	27f4 <delay@plt>
    80a8:	e3a010f6 	mov	r1, #246	; 0xf6
    80ac:	e1a00005 	mov	r0, r5
    80b0:	ebffea05 	bl	28cc <wiringPiI2CReadReg8@plt>
    80b4:	e3a010f7 	mov	r1, #247	; 0xf7
    80b8:	e1a0a000 	mov	sl, r0
    80bc:	e1a00005 	mov	r0, r5
    80c0:	ebffea01 	bl	28cc <wiringPiI2CReadReg8@plt>
    80c4:	e3a010f8 	mov	r1, #248	; 0xf8
    80c8:	e6efa07a 	uxtb	sl, sl
    80cc:	e1a06000 	mov	r6, r0
    80d0:	e1a00005 	mov	r0, r5
    80d4:	ebffe9fc 	bl	28cc <wiringPiI2CReadReg8@plt>
    80d8:	e6ef3076 	uxtb	r3, r6
    80dc:	ee07aa90 	vmov	s15, sl
    80e0:	ee013a10 	vmov	s2, r3
    80e4:	ed9f5b49 	vldr	d5, [pc, #292]	; 8210 <myAnalogRead+0x24c>
    80e8:	ed946b12 	vldr	d6, [r4, #72]	; 0x48
    80ec:	eeb82b67 	vcvt.f64.u32	d2, s15
    80f0:	eeb81b41 	vcvt.f64.u32	d1, s2
    80f4:	ee3c5b45 	vsub.f64	d5, d12, d5
    80f8:	ed947b0c 	vldr	d7, [r4, #48]	; 0x30
    80fc:	ed943b0a 	vldr	d3, [r4, #40]	; 0x28
    8100:	ed9f0b44 	vldr	d0, [pc, #272]	; 8218 <myAnalogRead+0x254>
    8104:	ed944b14 	vldr	d4, [r4, #80]	; 0x50
    8108:	ee021b0b 	vmla.f64	d1, d2, d11
    810c:	ed942b10 	vldr	d2, [r4, #64]	; 0x40
    8110:	ee25bb05 	vmul.f64	d11, d5, d5
    8114:	ee257b07 	vmul.f64	d7, d5, d7
    8118:	ee256b06 	vmul.f64	d6, d5, d6
    811c:	ee0b7b03 	vmla.f64	d7, d11, d3
    8120:	ed943b0e 	vldr	d3, [r4, #56]	; 0x38
    8124:	ee0b6b02 	vmla.f64	d6, d11, d2
    8128:	e6ef0070 	uxtb	r0, r0
    812c:	ee050a90 	vmov	s11, r0
    8130:	ee377b03 	vadd.f64	d7, d7, d3
    8134:	eeb85b65 	vcvt.f64.u32	d5, s11
    8138:	ee366b04 	vadd.f64	d6, d6, d4
    813c:	ed944b18 	vldr	d4, [r4, #96]	; 0x60
    8140:	ed943b1a 	vldr	d3, [r4, #104]	; 0x68
    8144:	ee051b00 	vmla.f64	d1, d5, d0
    8148:	ed945b16 	vldr	d5, [r4, #88]	; 0x58
    814c:	ee311b47 	vsub.f64	d1, d1, d7
    8150:	ee817b06 	vdiv.f64	d7, d1, d6
    8154:	ee276b07 	vmul.f64	d6, d7, d7
    8158:	ee277b04 	vmul.f64	d7, d7, d4
    815c:	ee067b05 	vmla.f64	d7, d6, d5
    8160:	ee373b03 	vadd.f64	d3, d7, d3
    8164:	ee038b0a 	vmla.f64	d8, d3, d10
    8168:	ee880b09 	vdiv.f64	d0, d8, d9
    816c:	ebffe9f4 	bl	2944 <rint@plt>
